; Listing generated by Microsoft (R) Optimizing Compiler Version 19.22.27905.0 

	TITLE	C:\TouchGFXProjects\RPCTest\TouchGFX\generated\images\src\B07_LED_G.cpp
	.686P
	.XMM
	include listing.inc
	.model	flat

INCLUDELIB MSVCRTD
INCLUDELIB OLDNAMES

PUBLIC	?_b07_led_g@@3QBEB				; _b07_led_g
CONST	SEGMENT
?_b07_led_g@@3QBEB DB 00H				; _b07_led_g
	DB	00H
	DB	00H
	DB	00H
	DB	00H
	DB	00H
	DB	00H
	DB	00H
	DB	00H
	DB	00H
	DB	00H
	DB	00H
	DB	00H
	DB	00H
	DB	00H
	DB	00H
	DB	00H
	DB	00H
	DB	00H
	DB	00H
	DB	00H
	DB	00H
	DB	00H
	DB	00H
	DB	00H
	DB	00H
	DB	00H
	DB	00H
	DB	028H
	DB	060H
	DB	050H
	DB	020H
	DB	028H
	DB	061H
	DB	04eH
	DB	06cH
	DB	028H
	DB	062H
	DB	050H
	DB	0b3H
	DB	028H
	DB	062H
	DB	04fH
	DB	0dbH
	DB	028H
	DB	062H
	DB	04fH
	DB	0f3H
	DB	028H
	DB	062H
	DB	04fH
	DB	0f3H
	DB	028H
	DB	062H
	DB	04fH
	DB	0dbH
	DB	028H
	DB	062H
	DB	050H
	DB	0b3H
	DB	028H
	DB	061H
	DB	04eH
	DB	06cH
	DB	024H
	DB	064H
	DB	052H
	DB	01cH
	DB	00H
	DB	00H
	DB	00H
	DB	00H
	DB	00H
	DB	00H
	DB	00H
	DB	00H
	DB	00H
	DB	00H
	DB	00H
	DB	00H
	DB	00H
	DB	00H
	DB	00H
	DB	00H
	DB	00H
	DB	00H
	DB	00H
	DB	00H
	DB	00H
	DB	00H
	DB	00H
	DB	00H
	DB	00H
	DB	00H
	DB	00H
	DB	00H
	DB	00H
	DB	00H
	DB	00H
	DB	00H
	DB	00H
	DB	00H
	DB	00H
	DB	00H
	DB	00H
	DB	00H
	DB	00H
	DB	00H
	DB	00H
	DB	00H
	DB	00H
	DB	00H
	DB	00H
	DB	00H
	DB	00H
	DB	00H
	DB	00H
	DB	00H
	DB	00H
	DB	00H
	DB	02aH
	DB	060H
	DB	04fH
	DB	03dH
	DB	027H
	DB	062H
	DB	04fH
	DB	095H
	DB	028H
	DB	062H
	DB	04fH
	DB	0eeH
	DB	028H
	DB	062H
	DB	04fH
	DB	0ffH
	DB	028H
	DB	062H
	DB	04fH
	DB	0ffH
	DB	028H
	DB	062H
	DB	04fH
	DB	0ffH
	DB	028H
	DB	062H
	DB	04fH
	DB	0ffH
	DB	028H
	DB	062H
	DB	04fH
	DB	0ffH
	DB	028H
	DB	062H
	DB	04fH
	DB	0ffH
	DB	028H
	DB	062H
	DB	04fH
	DB	0ffH
	DB	028H
	DB	062H
	DB	04fH
	DB	0ffH
	DB	028H
	DB	063H
	DB	04fH
	DB	0eeH
	DB	029H
	DB	062H
	DB	04fH
	DB	097H
	DB	027H
	DB	062H
	DB	04eH
	DB	041H
	DB	00H
	DB	00H
	DB	00H
	DB	00H
	DB	00H
	DB	00H
	DB	00H
	DB	00H
	DB	00H
	DB	00H
	DB	00H
	DB	00H
	DB	00H
	DB	00H
	DB	00H
	DB	00H
	DB	00H
	DB	00H
	DB	00H
	DB	00H
	DB	00H
	DB	00H
	DB	00H
	DB	00H
	DB	00H
	DB	00H
	DB	00H
	DB	00H
	DB	00H
	DB	00H
	DB	00H
	DB	00H
	DB	00H
	DB	00H
	DB	00H
	DB	00H
	DB	00H
	DB	00H
	DB	00H
	DB	01H
	DB	027H
	DB	063H
	DB	04eH
	DB	06fH
	DB	028H
	DB	062H
	DB	04eH
	DB	0ddH
	DB	028H
	DB	062H
	DB	04fH
	DB	0ffH
	DB	028H
	DB	062H
	DB	04fH
	DB	0ffH
	DB	028H
	DB	062H
	DB	04fH
	DB	0ffH
	DB	028H
	DB	062H
	DB	04fH
	DB	0ffH
	DB	028H
	DB	062H
	DB	04fH
	DB	0ffH
	DB	028H
	DB	062H
	DB	04fH
	DB	0ffH
	DB	028H
	DB	062H
	DB	04fH
	DB	0ffH
	DB	028H
	DB	062H
	DB	04fH
	DB	0ffH
	DB	028H
	DB	062H
	DB	04fH
	DB	0ffH
	DB	028H
	DB	062H
	DB	04fH
	DB	0ffH
	DB	028H
	DB	062H
	DB	04fH
	DB	0ffH
	DB	028H
	DB	062H
	DB	04fH
	DB	0ffH
	DB	028H
	DB	062H
	DB	04fH
	DB	0e3H
	DB	028H
	DB	062H
	DB	04eH
	DB	073H
	DB	00H
	DB	080H
	DB	080H
	DB	02H
	DB	00H
	DB	00H
	DB	00H
	DB	00H
	DB	00H
	DB	00H
	DB	00H
	DB	00H
	DB	00H
	DB	00H
	DB	00H
	DB	00H
	DB	00H
	DB	00H
	DB	00H
	DB	00H
	DB	00H
	DB	00H
	DB	00H
	DB	00H
	DB	00H
	DB	00H
	DB	00H
	DB	00H
	DB	00H
	DB	00H
	DB	00H
	DB	00H
	DB	027H
	DB	062H
	DB	04eH
	DB	08fH
	DB	028H
	DB	062H
	DB	04fH
	DB	0ffH
	DB	028H
	DB	062H
	DB	04fH
	DB	0ffH
	DB	028H
	DB	062H
	DB	04fH
	DB	0ffH
	DB	028H
	DB	062H
	DB	04fH
	DB	0ffH
	DB	028H
	DB	062H
	DB	04fH
	DB	0ffH
	DB	028H
	DB	062H
	DB	04fH
	DB	0ffH
	DB	028H
	DB	062H
	DB	04fH
	DB	0ffH
	DB	028H
	DB	062H
	DB	04fH
	DB	0ffH
	DB	028H
	DB	062H
	DB	04fH
	DB	0ffH
	DB	028H
	DB	062H
	DB	04fH
	DB	0ffH
	DB	028H
	DB	062H
	DB	04fH
	DB	0ffH
	DB	028H
	DB	062H
	DB	04fH
	DB	0ffH
	DB	028H
	DB	062H
	DB	04fH
	DB	0ffH
	DB	028H
	DB	062H
	DB	04fH
	DB	0ffH
	DB	028H
	DB	062H
	DB	04fH
	DB	0ffH
	DB	028H
	DB	062H
	DB	04fH
	DB	0ffH
	DB	027H
	DB	062H
	DB	04eH
	DB	08fH
	DB	00H
	DB	00H
	DB	00H
	DB	00H
	DB	00H
	DB	00H
	DB	00H
	DB	00H
	DB	00H
	DB	00H
	DB	00H
	DB	00H
	DB	00H
	DB	00H
	DB	00H
	DB	00H
	DB	00H
	DB	00H
	DB	00H
	DB	00H
	DB	00H
	DB	00H
	DB	00H
	DB	00H
	DB	028H
	DB	062H
	DB	04fH
	DB	07aH
	DB	028H
	DB	062H
	DB	04fH
	DB	0ffH
	DB	028H
	DB	062H
	DB	04fH
	DB	0ffH
	DB	028H
	DB	062H
	DB	04fH
	DB	0ffH
	DB	028H
	DB	062H
	DB	04fH
	DB	0ffH
	DB	028H
	DB	062H
	DB	04fH
	DB	0ffH
	DB	028H
	DB	062H
	DB	04fH
	DB	0ffH
	DB	028H
	DB	062H
	DB	04fH
	DB	0ffH
	DB	028H
	DB	062H
	DB	04fH
	DB	0ffH
	DB	028H
	DB	062H
	DB	04fH
	DB	0ffH
	DB	028H
	DB	062H
	DB	04fH
	DB	0ffH
	DB	028H
	DB	062H
	DB	04fH
	DB	0ffH
	DB	028H
	DB	062H
	DB	04fH
	DB	0ffH
	DB	028H
	DB	062H
	DB	04fH
	DB	0ffH
	DB	028H
	DB	062H
	DB	04fH
	DB	0ffH
	DB	028H
	DB	062H
	DB	04fH
	DB	0ffH
	DB	028H
	DB	062H
	DB	04fH
	DB	0ffH
	DB	028H
	DB	062H
	DB	04fH
	DB	0ffH
	DB	028H
	DB	062H
	DB	04fH
	DB	0ffH
	DB	028H
	DB	062H
	DB	04fH
	DB	07aH
	DB	00H
	DB	00H
	DB	00H
	DB	00H
	DB	00H
	DB	00H
	DB	00H
	DB	00H
	DB	00H
	DB	00H
	DB	00H
	DB	00H
	DB	00H
	DB	00H
	DB	00H
	DB	00H
	DB	028H
	DB	061H
	DB	04dH
	DB	04cH
	DB	027H
	DB	062H
	DB	04fH
	DB	0efH
	DB	028H
	DB	062H
	DB	04fH
	DB	0ffH
	DB	028H
	DB	062H
	DB	04fH
	DB	0ffH
	DB	028H
	DB	062H
	DB	04fH
	DB	0ffH
	DB	028H
	DB	062H
	DB	04fH
	DB	0ffH
	DB	028H
	DB	062H
	DB	04fH
	DB	0ffH
	DB	028H
	DB	062H
	DB	04fH
	DB	0ffH
	DB	028H
	DB	062H
	DB	04fH
	DB	0ffH
	DB	028H
	DB	062H
	DB	04fH
	DB	0ffH
	DB	028H
	DB	062H
	DB	04fH
	DB	0ffH
	DB	028H
	DB	062H
	DB	04fH
	DB	0ffH
	DB	028H
	DB	062H
	DB	04fH
	DB	0ffH
	DB	028H
	DB	062H
	DB	04fH
	DB	0ffH
	DB	028H
	DB	062H
	DB	04fH
	DB	0ffH
	DB	028H
	DB	062H
	DB	04fH
	DB	0ffH
	DB	028H
	DB	062H
	DB	04fH
	DB	0ffH
	DB	028H
	DB	062H
	DB	04fH
	DB	0ffH
	DB	028H
	DB	062H
	DB	04fH
	DB	0ffH
	DB	028H
	DB	062H
	DB	04fH
	DB	0ffH
	DB	027H
	DB	062H
	DB	04fH
	DB	0efH
	DB	028H
	DB	061H
	DB	04dH
	DB	04cH
	DB	00H
	DB	00H
	DB	00H
	DB	00H
	DB	00H
	DB	00H
	DB	00H
	DB	00H
	DB	040H
	DB	080H
	DB	040H
	DB	04H
	DB	027H
	DB	061H
	DB	04fH
	DB	0a8H
	DB	028H
	DB	062H
	DB	04fH
	DB	0ffH
	DB	028H
	DB	062H
	DB	04fH
	DB	0ffH
	DB	028H
	DB	062H
	DB	04fH
	DB	0ffH
	DB	028H
	DB	062H
	DB	04fH
	DB	0ffH
	DB	028H
	DB	062H
	DB	04fH
	DB	0ffH
	DB	028H
	DB	062H
	DB	04fH
	DB	0ffH
	DB	028H
	DB	062H
	DB	04fH
	DB	0ffH
	DB	028H
	DB	062H
	DB	04fH
	DB	0ffH
	DB	028H
	DB	062H
	DB	04fH
	DB	0ffH
	DB	028H
	DB	062H
	DB	04fH
	DB	0ffH
	DB	028H
	DB	062H
	DB	04fH
	DB	0ffH
	DB	028H
	DB	062H
	DB	04fH
	DB	0ffH
	DB	028H
	DB	062H
	DB	04fH
	DB	0ffH
	DB	028H
	DB	062H
	DB	04fH
	DB	0ffH
	DB	028H
	DB	062H
	DB	04fH
	DB	0ffH
	DB	028H
	DB	062H
	DB	04fH
	DB	0ffH
	DB	028H
	DB	062H
	DB	04fH
	DB	0ffH
	DB	028H
	DB	062H
	DB	04fH
	DB	0ffH
	DB	028H
	DB	062H
	DB	04fH
	DB	0ffH
	DB	028H
	DB	062H
	DB	04fH
	DB	0ffH
	DB	027H
	DB	061H
	DB	04fH
	DB	0a8H
	DB	040H
	DB	080H
	DB	040H
	DB	04H
	DB	00H
	DB	00H
	DB	00H
	DB	00H
	DB	028H
	DB	061H
	DB	04fH
	DB	047H
	DB	028H
	DB	062H
	DB	04fH
	DB	0ffH
	DB	028H
	DB	062H
	DB	04fH
	DB	0ffH
	DB	028H
	DB	062H
	DB	04fH
	DB	0ffH
	DB	028H
	DB	062H
	DB	04fH
	DB	0ffH
	DB	028H
	DB	062H
	DB	04fH
	DB	0ffH
	DB	028H
	DB	062H
	DB	04fH
	DB	0ffH
	DB	028H
	DB	062H
	DB	04fH
	DB	0ffH
	DB	028H
	DB	062H
	DB	04fH
	DB	0ffH
	DB	028H
	DB	062H
	DB	04fH
	DB	0ffH
	DB	028H
	DB	062H
	DB	04fH
	DB	0ffH
	DB	028H
	DB	062H
	DB	04fH
	DB	0ffH
	DB	028H
	DB	062H
	DB	04fH
	DB	0ffH
	DB	028H
	DB	062H
	DB	04fH
	DB	0ffH
	DB	028H
	DB	062H
	DB	04fH
	DB	0ffH
	DB	028H
	DB	062H
	DB	04fH
	DB	0ffH
	DB	028H
	DB	062H
	DB	04fH
	DB	0ffH
	DB	028H
	DB	062H
	DB	04fH
	DB	0ffH
	DB	028H
	DB	062H
	DB	04fH
	DB	0ffH
	DB	028H
	DB	062H
	DB	04fH
	DB	0ffH
	DB	028H
	DB	062H
	DB	04fH
	DB	0ffH
	DB	028H
	DB	062H
	DB	04fH
	DB	0ffH
	DB	028H
	DB	062H
	DB	04fH
	DB	0ffH
	DB	028H
	DB	062H
	DB	050H
	DB	046H
	DB	00H
	DB	00H
	DB	00H
	DB	00H
	DB	028H
	DB	062H
	DB	04fH
	DB	085H
	DB	028H
	DB	062H
	DB	04fH
	DB	0ffH
	DB	028H
	DB	062H
	DB	04fH
	DB	0ffH
	DB	028H
	DB	062H
	DB	04fH
	DB	0ffH
	DB	028H
	DB	062H
	DB	04fH
	DB	0ffH
	DB	028H
	DB	062H
	DB	04fH
	DB	0ffH
	DB	028H
	DB	062H
	DB	04fH
	DB	0ffH
	DB	028H
	DB	062H
	DB	04fH
	DB	0ffH
	DB	028H
	DB	062H
	DB	04fH
	DB	0ffH
	DB	028H
	DB	062H
	DB	04fH
	DB	0ffH
	DB	028H
	DB	062H
	DB	04fH
	DB	0ffH
	DB	028H
	DB	062H
	DB	04fH
	DB	0ffH
	DB	028H
	DB	062H
	DB	04fH
	DB	0ffH
	DB	028H
	DB	062H
	DB	04fH
	DB	0ffH
	DB	028H
	DB	062H
	DB	04fH
	DB	0ffH
	DB	028H
	DB	062H
	DB	04fH
	DB	0ffH
	DB	028H
	DB	062H
	DB	04fH
	DB	0ffH
	DB	028H
	DB	062H
	DB	04fH
	DB	0ffH
	DB	028H
	DB	062H
	DB	04fH
	DB	0ffH
	DB	028H
	DB	062H
	DB	04fH
	DB	0ffH
	DB	028H
	DB	062H
	DB	04fH
	DB	0ffH
	DB	028H
	DB	062H
	DB	04fH
	DB	0ffH
	DB	028H
	DB	062H
	DB	04fH
	DB	0ffH
	DB	028H
	DB	062H
	DB	04fH
	DB	085H
	DB	00H
	DB	00H
	DB	00H
	DB	00H
	DB	028H
	DB	063H
	DB	04fH
	DB	0c7H
	DB	028H
	DB	062H
	DB	04fH
	DB	0ffH
	DB	028H
	DB	062H
	DB	04fH
	DB	0ffH
	DB	028H
	DB	062H
	DB	04fH
	DB	0ffH
	DB	028H
	DB	062H
	DB	04fH
	DB	0ffH
	DB	028H
	DB	062H
	DB	04fH
	DB	0ffH
	DB	028H
	DB	062H
	DB	04fH
	DB	0ffH
	DB	028H
	DB	062H
	DB	04fH
	DB	0ffH
	DB	028H
	DB	062H
	DB	04fH
	DB	0ffH
	DB	028H
	DB	062H
	DB	04fH
	DB	0ffH
	DB	028H
	DB	062H
	DB	04fH
	DB	0ffH
	DB	028H
	DB	062H
	DB	04fH
	DB	0ffH
	DB	028H
	DB	062H
	DB	04fH
	DB	0ffH
	DB	028H
	DB	062H
	DB	04fH
	DB	0ffH
	DB	028H
	DB	062H
	DB	04fH
	DB	0ffH
	DB	028H
	DB	062H
	DB	04fH
	DB	0ffH
	DB	028H
	DB	062H
	DB	04fH
	DB	0ffH
	DB	028H
	DB	062H
	DB	04fH
	DB	0ffH
	DB	028H
	DB	062H
	DB	04fH
	DB	0ffH
	DB	028H
	DB	062H
	DB	04fH
	DB	0ffH
	DB	028H
	DB	062H
	DB	04fH
	DB	0ffH
	DB	028H
	DB	062H
	DB	04fH
	DB	0ffH
	DB	028H
	DB	062H
	DB	04fH
	DB	0ffH
	DB	028H
	DB	063H
	DB	04fH
	DB	0c7H
	DB	00H
	DB	00H
	DB	00H
	DB	00H
	DB	028H
	DB	063H
	DB	04fH
	DB	0d9H
	DB	028H
	DB	062H
	DB	04fH
	DB	0ffH
	DB	028H
	DB	062H
	DB	04fH
	DB	0ffH
	DB	028H
	DB	062H
	DB	04fH
	DB	0ffH
	DB	028H
	DB	062H
	DB	04fH
	DB	0ffH
	DB	028H
	DB	062H
	DB	04fH
	DB	0ffH
	DB	028H
	DB	062H
	DB	04fH
	DB	0ffH
	DB	028H
	DB	062H
	DB	04fH
	DB	0ffH
	DB	028H
	DB	062H
	DB	04fH
	DB	0ffH
	DB	028H
	DB	062H
	DB	04fH
	DB	0ffH
	DB	028H
	DB	062H
	DB	04fH
	DB	0ffH
	DB	028H
	DB	062H
	DB	04fH
	DB	0ffH
	DB	028H
	DB	062H
	DB	04fH
	DB	0ffH
	DB	028H
	DB	062H
	DB	04fH
	DB	0ffH
	DB	028H
	DB	062H
	DB	04fH
	DB	0ffH
	DB	028H
	DB	062H
	DB	04fH
	DB	0ffH
	DB	028H
	DB	062H
	DB	04fH
	DB	0ffH
	DB	028H
	DB	062H
	DB	04fH
	DB	0ffH
	DB	028H
	DB	062H
	DB	04fH
	DB	0ffH
	DB	028H
	DB	062H
	DB	04fH
	DB	0ffH
	DB	028H
	DB	062H
	DB	04fH
	DB	0ffH
	DB	028H
	DB	062H
	DB	04fH
	DB	0ffH
	DB	028H
	DB	062H
	DB	04fH
	DB	0ffH
	DB	028H
	DB	063H
	DB	04fH
	DB	0d9H
	DB	00H
	DB	00H
	DB	00H
	DB	00H
	DB	028H
	DB	062H
	DB	04fH
	DB	0ffH
	DB	028H
	DB	062H
	DB	04fH
	DB	0ffH
	DB	028H
	DB	062H
	DB	04fH
	DB	0ffH
	DB	028H
	DB	062H
	DB	04fH
	DB	0ffH
	DB	028H
	DB	062H
	DB	04fH
	DB	0ffH
	DB	028H
	DB	062H
	DB	04fH
	DB	0ffH
	DB	028H
	DB	062H
	DB	04fH
	DB	0ffH
	DB	028H
	DB	062H
	DB	04fH
	DB	0ffH
	DB	028H
	DB	062H
	DB	04fH
	DB	0ffH
	DB	028H
	DB	062H
	DB	04fH
	DB	0ffH
	DB	028H
	DB	062H
	DB	04fH
	DB	0ffH
	DB	028H
	DB	062H
	DB	04fH
	DB	0ffH
	DB	028H
	DB	062H
	DB	04fH
	DB	0ffH
	DB	028H
	DB	062H
	DB	04fH
	DB	0ffH
	DB	028H
	DB	062H
	DB	04fH
	DB	0ffH
	DB	028H
	DB	062H
	DB	04fH
	DB	0ffH
	DB	028H
	DB	062H
	DB	04fH
	DB	0ffH
	DB	028H
	DB	062H
	DB	04fH
	DB	0ffH
	DB	028H
	DB	062H
	DB	04fH
	DB	0ffH
	DB	028H
	DB	062H
	DB	04fH
	DB	0ffH
	DB	028H
	DB	062H
	DB	04fH
	DB	0ffH
	DB	028H
	DB	062H
	DB	04fH
	DB	0ffH
	DB	028H
	DB	062H
	DB	04fH
	DB	0ffH
	DB	028H
	DB	062H
	DB	04fH
	DB	0ffH
	DB	00H
	DB	00H
	DB	00H
	DB	00H
	DB	028H
	DB	062H
	DB	04eH
	DB	0daH
	DB	028H
	DB	062H
	DB	04fH
	DB	0ffH
	DB	028H
	DB	062H
	DB	04fH
	DB	0ffH
	DB	028H
	DB	062H
	DB	04fH
	DB	0ffH
	DB	028H
	DB	062H
	DB	04fH
	DB	0ffH
	DB	028H
	DB	062H
	DB	04fH
	DB	0ffH
	DB	028H
	DB	062H
	DB	04fH
	DB	0ffH
	DB	028H
	DB	062H
	DB	04fH
	DB	0ffH
	DB	028H
	DB	062H
	DB	04fH
	DB	0ffH
	DB	028H
	DB	062H
	DB	04fH
	DB	0ffH
	DB	028H
	DB	062H
	DB	04fH
	DB	0ffH
	DB	028H
	DB	062H
	DB	04fH
	DB	0ffH
	DB	028H
	DB	062H
	DB	04fH
	DB	0ffH
	DB	028H
	DB	062H
	DB	04fH
	DB	0ffH
	DB	028H
	DB	062H
	DB	04fH
	DB	0ffH
	DB	028H
	DB	062H
	DB	04fH
	DB	0ffH
	DB	028H
	DB	062H
	DB	04fH
	DB	0ffH
	DB	028H
	DB	062H
	DB	04fH
	DB	0ffH
	DB	028H
	DB	062H
	DB	04fH
	DB	0ffH
	DB	028H
	DB	062H
	DB	04fH
	DB	0ffH
	DB	028H
	DB	062H
	DB	04fH
	DB	0ffH
	DB	028H
	DB	062H
	DB	04fH
	DB	0ffH
	DB	028H
	DB	062H
	DB	04fH
	DB	0ffH
	DB	028H
	DB	063H
	DB	04fH
	DB	0d9H
	DB	00H
	DB	00H
	DB	00H
	DB	00H
	DB	028H
	DB	063H
	DB	04fH
	DB	0c7H
	DB	028H
	DB	062H
	DB	04fH
	DB	0ffH
	DB	028H
	DB	062H
	DB	04fH
	DB	0ffH
	DB	028H
	DB	062H
	DB	04fH
	DB	0ffH
	DB	028H
	DB	062H
	DB	04fH
	DB	0ffH
	DB	028H
	DB	062H
	DB	04fH
	DB	0ffH
	DB	028H
	DB	062H
	DB	04fH
	DB	0ffH
	DB	028H
	DB	062H
	DB	04fH
	DB	0ffH
	DB	028H
	DB	062H
	DB	04fH
	DB	0ffH
	DB	028H
	DB	062H
	DB	04fH
	DB	0ffH
	DB	028H
	DB	062H
	DB	04fH
	DB	0ffH
	DB	028H
	DB	062H
	DB	04fH
	DB	0ffH
	DB	028H
	DB	062H
	DB	04fH
	DB	0ffH
	DB	028H
	DB	062H
	DB	04fH
	DB	0ffH
	DB	028H
	DB	062H
	DB	04fH
	DB	0ffH
	DB	028H
	DB	062H
	DB	04fH
	DB	0ffH
	DB	028H
	DB	062H
	DB	04fH
	DB	0ffH
	DB	028H
	DB	062H
	DB	04fH
	DB	0ffH
	DB	028H
	DB	062H
	DB	04fH
	DB	0ffH
	DB	028H
	DB	062H
	DB	04fH
	DB	0ffH
	DB	028H
	DB	062H
	DB	04fH
	DB	0ffH
	DB	028H
	DB	062H
	DB	04fH
	DB	0ffH
	DB	028H
	DB	062H
	DB	04fH
	DB	0ffH
	DB	028H
	DB	063H
	DB	04fH
	DB	0c7H
	DB	00H
	DB	00H
	DB	00H
	DB	00H
	DB	028H
	DB	063H
	DB	050H
	DB	086H
	DB	028H
	DB	062H
	DB	04fH
	DB	0ffH
	DB	028H
	DB	062H
	DB	04fH
	DB	0ffH
	DB	028H
	DB	062H
	DB	04fH
	DB	0ffH
	DB	028H
	DB	062H
	DB	04fH
	DB	0ffH
	DB	028H
	DB	062H
	DB	04fH
	DB	0ffH
	DB	028H
	DB	062H
	DB	04fH
	DB	0ffH
	DB	028H
	DB	062H
	DB	04fH
	DB	0ffH
	DB	028H
	DB	062H
	DB	04fH
	DB	0ffH
	DB	028H
	DB	062H
	DB	04fH
	DB	0ffH
	DB	028H
	DB	062H
	DB	04fH
	DB	0ffH
	DB	028H
	DB	062H
	DB	04fH
	DB	0ffH
	DB	028H
	DB	062H
	DB	04fH
	DB	0ffH
	DB	028H
	DB	062H
	DB	04fH
	DB	0ffH
	DB	028H
	DB	062H
	DB	04fH
	DB	0ffH
	DB	028H
	DB	062H
	DB	04fH
	DB	0ffH
	DB	028H
	DB	062H
	DB	04fH
	DB	0ffH
	DB	028H
	DB	062H
	DB	04fH
	DB	0ffH
	DB	028H
	DB	062H
	DB	04fH
	DB	0ffH
	DB	028H
	DB	062H
	DB	04fH
	DB	0ffH
	DB	028H
	DB	062H
	DB	04fH
	DB	0ffH
	DB	028H
	DB	062H
	DB	04fH
	DB	0ffH
	DB	028H
	DB	062H
	DB	04fH
	DB	0ffH
	DB	028H
	DB	063H
	DB	050H
	DB	086H
	DB	00H
	DB	00H
	DB	00H
	DB	00H
	DB	026H
	DB	062H
	DB	050H
	DB	049H
	DB	028H
	DB	062H
	DB	04fH
	DB	0ffH
	DB	028H
	DB	062H
	DB	04fH
	DB	0ffH
	DB	028H
	DB	062H
	DB	04fH
	DB	0ffH
	DB	028H
	DB	062H
	DB	04fH
	DB	0ffH
	DB	028H
	DB	062H
	DB	04fH
	DB	0ffH
	DB	028H
	DB	062H
	DB	04fH
	DB	0ffH
	DB	028H
	DB	062H
	DB	04fH
	DB	0ffH
	DB	028H
	DB	062H
	DB	04fH
	DB	0ffH
	DB	028H
	DB	062H
	DB	04fH
	DB	0ffH
	DB	028H
	DB	062H
	DB	04fH
	DB	0ffH
	DB	028H
	DB	062H
	DB	04fH
	DB	0ffH
	DB	028H
	DB	062H
	DB	04fH
	DB	0ffH
	DB	028H
	DB	062H
	DB	04fH
	DB	0ffH
	DB	028H
	DB	062H
	DB	04fH
	DB	0ffH
	DB	028H
	DB	062H
	DB	04fH
	DB	0ffH
	DB	028H
	DB	062H
	DB	04fH
	DB	0ffH
	DB	028H
	DB	062H
	DB	04fH
	DB	0ffH
	DB	028H
	DB	062H
	DB	04fH
	DB	0ffH
	DB	028H
	DB	062H
	DB	04fH
	DB	0ffH
	DB	028H
	DB	062H
	DB	04fH
	DB	0ffH
	DB	028H
	DB	062H
	DB	04fH
	DB	0ffH
	DB	028H
	DB	062H
	DB	04fH
	DB	0ffH
	DB	026H
	DB	062H
	DB	050H
	DB	049H
	DB	00H
	DB	00H
	DB	00H
	DB	00H
	DB	033H
	DB	066H
	DB	04dH
	DB	0aH
	DB	028H
	DB	062H
	DB	04fH
	DB	0acH
	DB	028H
	DB	062H
	DB	04fH
	DB	0ffH
	DB	028H
	DB	062H
	DB	04fH
	DB	0ffH
	DB	028H
	DB	062H
	DB	04fH
	DB	0ffH
	DB	028H
	DB	062H
	DB	04fH
	DB	0ffH
	DB	028H
	DB	062H
	DB	04fH
	DB	0ffH
	DB	028H
	DB	062H
	DB	04fH
	DB	0ffH
	DB	028H
	DB	062H
	DB	04fH
	DB	0ffH
	DB	028H
	DB	062H
	DB	04fH
	DB	0ffH
	DB	028H
	DB	062H
	DB	04fH
	DB	0ffH
	DB	028H
	DB	062H
	DB	04fH
	DB	0ffH
	DB	028H
	DB	062H
	DB	04fH
	DB	0ffH
	DB	028H
	DB	062H
	DB	04fH
	DB	0ffH
	DB	028H
	DB	062H
	DB	04fH
	DB	0ffH
	DB	028H
	DB	062H
	DB	04fH
	DB	0ffH
	DB	028H
	DB	062H
	DB	04fH
	DB	0ffH
	DB	028H
	DB	062H
	DB	04fH
	DB	0ffH
	DB	028H
	DB	062H
	DB	04fH
	DB	0ffH
	DB	028H
	DB	062H
	DB	04fH
	DB	0ffH
	DB	028H
	DB	062H
	DB	04fH
	DB	0ffH
	DB	028H
	DB	062H
	DB	04fH
	DB	0ffH
	DB	028H
	DB	062H
	DB	04fH
	DB	0abH
	DB	033H
	DB	066H
	DB	04dH
	DB	0aH
	DB	00H
	DB	00H
	DB	00H
	DB	00H
	DB	00H
	DB	00H
	DB	00H
	DB	00H
	DB	027H
	DB	062H
	DB	04eH
	DB	034H
	DB	028H
	DB	062H
	DB	04fH
	DB	0ffH
	DB	028H
	DB	062H
	DB	04fH
	DB	0ffH
	DB	028H
	DB	062H
	DB	04fH
	DB	0ffH
	DB	028H
	DB	062H
	DB	04fH
	DB	0ffH
	DB	028H
	DB	062H
	DB	04fH
	DB	0ffH
	DB	028H
	DB	062H
	DB	04fH
	DB	0ffH
	DB	028H
	DB	062H
	DB	04fH
	DB	0ffH
	DB	028H
	DB	062H
	DB	04fH
	DB	0ffH
	DB	028H
	DB	062H
	DB	04fH
	DB	0ffH
	DB	028H
	DB	062H
	DB	04fH
	DB	0ffH
	DB	028H
	DB	062H
	DB	04fH
	DB	0ffH
	DB	028H
	DB	062H
	DB	04fH
	DB	0ffH
	DB	028H
	DB	062H
	DB	04fH
	DB	0ffH
	DB	028H
	DB	062H
	DB	04fH
	DB	0ffH
	DB	028H
	DB	062H
	DB	04fH
	DB	0ffH
	DB	028H
	DB	062H
	DB	04fH
	DB	0ffH
	DB	028H
	DB	062H
	DB	04fH
	DB	0ffH
	DB	028H
	DB	062H
	DB	04fH
	DB	0ffH
	DB	028H
	DB	062H
	DB	04fH
	DB	0ffH
	DB	028H
	DB	062H
	DB	04fH
	DB	0fbH
	DB	027H
	DB	062H
	DB	04eH
	DB	034H
	DB	00H
	DB	00H
	DB	00H
	DB	00H
	DB	00H
	DB	00H
	DB	00H
	DB	00H
	DB	00H
	DB	00H
	DB	00H
	DB	00H
	DB	00H
	DB	00H
	DB	00H
	DB	00H
	DB	028H
	DB	062H
	DB	04fH
	DB	07aH
	DB	028H
	DB	062H
	DB	04fH
	DB	0ffH
	DB	028H
	DB	062H
	DB	04fH
	DB	0ffH
	DB	028H
	DB	062H
	DB	04fH
	DB	0ffH
	DB	028H
	DB	062H
	DB	04fH
	DB	0ffH
	DB	028H
	DB	062H
	DB	04fH
	DB	0ffH
	DB	028H
	DB	062H
	DB	04fH
	DB	0ffH
	DB	028H
	DB	062H
	DB	04fH
	DB	0ffH
	DB	028H
	DB	062H
	DB	04fH
	DB	0ffH
	DB	028H
	DB	062H
	DB	04fH
	DB	0ffH
	DB	028H
	DB	062H
	DB	04fH
	DB	0ffH
	DB	028H
	DB	062H
	DB	04fH
	DB	0ffH
	DB	028H
	DB	062H
	DB	04fH
	DB	0ffH
	DB	028H
	DB	062H
	DB	04fH
	DB	0ffH
	DB	028H
	DB	062H
	DB	04fH
	DB	0ffH
	DB	028H
	DB	062H
	DB	04fH
	DB	0ffH
	DB	028H
	DB	062H
	DB	04fH
	DB	0ffH
	DB	028H
	DB	062H
	DB	04fH
	DB	0ffH
	DB	028H
	DB	062H
	DB	04fH
	DB	0ffH
	DB	028H
	DB	062H
	DB	04fH
	DB	07aH
	DB	00H
	DB	00H
	DB	00H
	DB	00H
	DB	00H
	DB	00H
	DB	00H
	DB	00H
	DB	00H
	DB	00H
	DB	00H
	DB	00H
	DB	00H
	DB	00H
	DB	00H
	DB	00H
	DB	00H
	DB	00H
	DB	00H
	DB	00H
	DB	00H
	DB	00H
	DB	00H
	DB	00H
	DB	027H
	DB	062H
	DB	04eH
	DB	08fH
	DB	028H
	DB	062H
	DB	04fH
	DB	0ffH
	DB	028H
	DB	062H
	DB	04fH
	DB	0ffH
	DB	028H
	DB	062H
	DB	04fH
	DB	0ffH
	DB	028H
	DB	062H
	DB	04fH
	DB	0ffH
	DB	028H
	DB	062H
	DB	04fH
	DB	0ffH
	DB	028H
	DB	062H
	DB	04fH
	DB	0ffH
	DB	028H
	DB	062H
	DB	04fH
	DB	0ffH
	DB	028H
	DB	062H
	DB	04fH
	DB	0ffH
	DB	028H
	DB	062H
	DB	04fH
	DB	0ffH
	DB	028H
	DB	062H
	DB	04fH
	DB	0ffH
	DB	028H
	DB	062H
	DB	04fH
	DB	0ffH
	DB	028H
	DB	062H
	DB	04fH
	DB	0ffH
	DB	028H
	DB	062H
	DB	04fH
	DB	0ffH
	DB	028H
	DB	062H
	DB	04fH
	DB	0ffH
	DB	028H
	DB	062H
	DB	04fH
	DB	0ffH
	DB	028H
	DB	062H
	DB	04fH
	DB	0ffH
	DB	027H
	DB	062H
	DB	04eH
	DB	08fH
	DB	00H
	DB	00H
	DB	00H
	DB	00H
	DB	00H
	DB	00H
	DB	00H
	DB	00H
	DB	00H
	DB	00H
	DB	00H
	DB	00H
	DB	00H
	DB	00H
	DB	00H
	DB	00H
	DB	00H
	DB	00H
	DB	00H
	DB	00H
	DB	00H
	DB	00H
	DB	00H
	DB	00H
	DB	00H
	DB	00H
	DB	00H
	DB	00H
	DB	00H
	DB	055H
	DB	055H
	DB	03H
	DB	028H
	DB	063H
	DB	04fH
	DB	074H
	DB	028H
	DB	062H
	DB	04fH
	DB	0e5H
	DB	028H
	DB	062H
	DB	04fH
	DB	0ffH
	DB	028H
	DB	062H
	DB	04fH
	DB	0ffH
	DB	028H
	DB	062H
	DB	04fH
	DB	0ffH
	DB	028H
	DB	062H
	DB	04fH
	DB	0ffH
	DB	028H
	DB	062H
	DB	04fH
	DB	0ffH
	DB	028H
	DB	062H
	DB	04fH
	DB	0ffH
	DB	028H
	DB	062H
	DB	04fH
	DB	0ffH
	DB	028H
	DB	062H
	DB	04fH
	DB	0ffH
	DB	028H
	DB	062H
	DB	04fH
	DB	0ffH
	DB	028H
	DB	062H
	DB	04fH
	DB	0ffH
	DB	028H
	DB	062H
	DB	04fH
	DB	0ffH
	DB	028H
	DB	062H
	DB	04fH
	DB	0ffH
	DB	028H
	DB	062H
	DB	04fH
	DB	0ebH
	DB	028H
	DB	062H
	DB	04fH
	DB	078H
	DB	033H
	DB	066H
	DB	033H
	DB	05H
	DB	00H
	DB	00H
	DB	00H
	DB	00H
	DB	00H
	DB	00H
	DB	00H
	DB	00H
	DB	00H
	DB	00H
	DB	00H
	DB	00H
	DB	00H
	DB	00H
	DB	00H
	DB	00H
	DB	00H
	DB	00H
	DB	00H
	DB	00H
	DB	00H
	DB	00H
	DB	00H
	DB	00H
	DB	00H
	DB	00H
	DB	00H
	DB	00H
	DB	00H
	DB	00H
	DB	00H
	DB	00H
	DB	00H
	DB	00H
	DB	00H
	DB	00H
	DB	028H
	DB	061H
	DB	04fH
	DB	047H
	DB	028H
	DB	061H
	DB	04eH
	DB	0a0H
	DB	028H
	DB	062H
	DB	04fH
	DB	0f8H
	DB	028H
	DB	062H
	DB	04fH
	DB	0ffH
	DB	028H
	DB	062H
	DB	04fH
	DB	0ffH
	DB	028H
	DB	062H
	DB	04fH
	DB	0ffH
	DB	028H
	DB	062H
	DB	04fH
	DB	0ffH
	DB	028H
	DB	062H
	DB	04fH
	DB	0ffH
	DB	028H
	DB	062H
	DB	04fH
	DB	0ffH
	DB	028H
	DB	062H
	DB	04fH
	DB	0ffH
	DB	028H
	DB	062H
	DB	04fH
	DB	0ffH
	DB	028H
	DB	062H
	DB	04fH
	DB	0f9H
	DB	027H
	DB	062H
	DB	04fH
	DB	0a2H
	DB	029H
	DB	063H
	DB	04eH
	DB	04bH
	DB	00H
	DB	00H
	DB	00H
	DB	00H
	DB	00H
	DB	00H
	DB	00H
	DB	00H
	DB	00H
	DB	00H
	DB	00H
	DB	00H
	DB	00H
	DB	00H
	DB	00H
	DB	00H
	DB	00H
	DB	00H
	DB	00H
	DB	00H
	DB	00H
	DB	00H
	DB	00H
	DB	00H
	DB	00H
	DB	00H
	DB	00H
	DB	00H
	DB	00H
	DB	00H
	DB	00H
	DB	00H
	DB	00H
	DB	00H
	DB	00H
	DB	00H
	DB	00H
	DB	00H
	DB	00H
	DB	00H
	DB	00H
	DB	00H
	DB	00H
	DB	00H
	DB	00H
	DB	00H
	DB	00H
	DB	00H
	DB	00H
	DB	00H
	DB	00H
	DB	00H
	DB	026H
	DB	060H
	DB	04dH
	DB	028H
	DB	028H
	DB	062H
	DB	04fH
	DB	078H
	DB	028H
	DB	062H
	DB	050H
	DB	0b3H
	DB	028H
	DB	062H
	DB	04fH
	DB	0dbH
	DB	028H
	DB	062H
	DB	04fH
	DB	0f3H
	DB	028H
	DB	062H
	DB	04fH
	DB	0f3H
	DB	028H
	DB	062H
	DB	04fH
	DB	0dbH
	DB	028H
	DB	062H
	DB	050H
	DB	0b3H
	DB	028H
	DB	061H
	DB	04fH
	DB	074H
	DB	026H
	DB	060H
	DB	04dH
	DB	028H
	DB	00H
	DB	00H
	DB	00H
	DB	00H
	DB	00H
	DB	00H
	DB	00H
	DB	00H
	DB	00H
	DB	00H
	DB	00H
	DB	00H
	DB	00H
	DB	00H
	DB	00H
	DB	00H
	DB	00H
	DB	00H
	DB	00H
	DB	00H
	DB	00H
	DB	00H
	DB	00H
	DB	00H
	DB	00H
	DB	00H
	DB	00H
	DB	00H
	DB	00H
	DB	00H
	DB	00H
	DB	00H
	DB	00H
	DB	00H
	DB	00H
	DB	00H
	DB	00H
	DB	00H
	DB	00H
	DB	00H
	DB	00H
	DB	00H
	DB	00H
	DB	00H
	DB	00H
	DB	00H
	DB	00H
	DB	00H
	DB	00H
	DB	00H
	DB	00H
	DB	00H
	DB	00H
	DB	00H
	DB	00H
	DB	00H
	DB	00H
	DB	00H
	DB	00H
	DB	00H
	DB	00H
	DB	00H
	DB	00H
	DB	00H
	DB	00H
	DB	00H
	DB	00H
	DB	00H
	DB	00H
	DB	00H
	DB	00H
	DB	00H
	DB	00H
	DB	00H
	DB	00H
	DB	00H
	DB	00H
	DB	00H
	DB	00H
	DB	00H
	DB	00H
	DB	00H
	DB	00H
	DB	00H
	DB	00H
	DB	00H
	DB	00H
	DB	00H
	DB	00H
	DB	00H
	DB	00H
	DB	00H
	DB	00H
	DB	00H
	DB	00H
	DB	00H
	DB	00H
	DB	00H
	DB	00H
	DB	00H
	DB	00H
	DB	00H
	DB	00H
	DB	00H
	DB	00H
	DB	00H
	DB	00H
	DB	00H
	DB	00H
	DB	00H
	DB	00H
	DB	00H
	DB	00H
	DB	00H
	DB	00H
	DB	00H
	DB	00H
	DB	00H
	DB	00H
	DB	00H
	DB	00H
	DB	00H
	DB	00H
	DB	00H
	DB	00H
	DB	00H
	DB	00H
	DB	00H
	DB	00H
	DB	00H
	DB	00H
	DB	00H
	DB	00H
	DB	00H
	DB	00H
	DB	00H
	DB	00H
	DB	00H
	DB	00H
	DB	00H
	DB	00H
	DB	00H
	DB	00H
	DB	00H
	DB	00H
	DB	00H
	DB	00H
	DB	00H
	DB	00H
	DB	00H
	DB	00H
	DB	00H
	DB	00H
	DB	00H
	DB	00H
	DB	00H
	DB	00H
	DB	00H
	DB	00H
	DB	00H
	DB	00H
	DB	00H
	DB	00H
	DB	00H
	DB	00H
	DB	00H
	DB	00H
	DB	00H
	DB	00H
	DB	00H
	DB	00H
	DB	00H
	DB	00H
	DB	00H
	DB	00H
	DB	00H
	DB	00H
	DB	00H
	DB	00H
	DB	00H
	DB	00H
	DB	00H
	DB	00H
	DB	00H
	DB	00H
	DB	00H
	DB	00H
	DB	00H
	DB	00H
	DB	00H
	DB	00H
	DB	00H
	DB	00H
	DB	00H
	DB	00H
	DB	00H
	DB	00H
	DB	00H
	DB	00H
	DB	00H
	DB	00H
	DB	00H
	DB	00H
	DB	00H
	DB	00H
	DB	00H
	DB	00H
	DB	00H
	DB	00H
	DB	00H
	DB	00H
	DB	00H
	DB	00H
	DB	00H
	DB	00H
	DB	00H
	DB	00H
	DB	00H
	DB	00H
	DB	00H
	DB	00H
	DB	00H
	DB	00H
	DB	00H
	DB	00H
	DB	00H
	DB	00H
	DB	00H
	DB	00H
	DB	00H
	DB	00H
	DB	00H
CONST	ENDS
END
