; Listing generated by Microsoft (R) Optimizing Compiler Version 19.22.27905.0 

	TITLE	C:\TouchGFXProjects\RPCTest\TouchGFX\generated\images\src\B09_LED_B.cpp
	.686P
	.XMM
	include listing.inc
	.model	flat

INCLUDELIB MSVCRTD
INCLUDELIB OLDNAMES

PUBLIC	?_b09_led_b@@3QBEB				; _b09_led_b
CONST	SEGMENT
?_b09_led_b@@3QBEB DB 00H				; _b09_led_b
	DB	00H
	DB	00H
	DB	00H
	DB	00H
	DB	00H
	DB	00H
	DB	00H
	DB	00H
	DB	00H
	DB	00H
	DB	00H
	DB	00H
	DB	00H
	DB	00H
	DB	00H
	DB	00H
	DB	00H
	DB	00H
	DB	00H
	DB	00H
	DB	00H
	DB	00H
	DB	00H
	DB	00H
	DB	00H
	DB	00H
	DB	00H
	DB	097H
	DB	087H
	DB	030H
	DB	020H
	DB	09cH
	DB	084H
	DB	032H
	DB	06cH
	DB	09dH
	DB	086H
	DB	030H
	DB	0b3H
	DB	09cH
	DB	085H
	DB	031H
	DB	0dbH
	DB	09cH
	DB	085H
	DB	031H
	DB	0f3H
	DB	09cH
	DB	085H
	DB	031H
	DB	0f3H
	DB	09cH
	DB	085H
	DB	031H
	DB	0dbH
	DB	09dH
	DB	086H
	DB	030H
	DB	0b3H
	DB	09cH
	DB	084H
	DB	032H
	DB	06cH
	DB	09bH
	DB	089H
	DB	02eH
	DB	01cH
	DB	00H
	DB	00H
	DB	00H
	DB	00H
	DB	00H
	DB	00H
	DB	00H
	DB	00H
	DB	00H
	DB	00H
	DB	00H
	DB	00H
	DB	00H
	DB	00H
	DB	00H
	DB	00H
	DB	00H
	DB	00H
	DB	00H
	DB	00H
	DB	00H
	DB	00H
	DB	00H
	DB	00H
	DB	00H
	DB	00H
	DB	00H
	DB	00H
	DB	00H
	DB	00H
	DB	00H
	DB	00H
	DB	00H
	DB	00H
	DB	00H
	DB	00H
	DB	00H
	DB	00H
	DB	00H
	DB	00H
	DB	00H
	DB	00H
	DB	00H
	DB	00H
	DB	00H
	DB	00H
	DB	00H
	DB	00H
	DB	09aH
	DB	087H
	DB	030H
	DB	035H
	DB	09dH
	DB	086H
	DB	031H
	DB	091H
	DB	09cH
	DB	084H
	DB	030H
	DB	0edH
	DB	09cH
	DB	085H
	DB	031H
	DB	0ffH
	DB	09cH
	DB	085H
	DB	031H
	DB	0ffH
	DB	09cH
	DB	085H
	DB	031H
	DB	0ffH
	DB	09cH
	DB	085H
	DB	031H
	DB	0ffH
	DB	09cH
	DB	085H
	DB	031H
	DB	0ffH
	DB	09cH
	DB	085H
	DB	031H
	DB	0ffH
	DB	09cH
	DB	085H
	DB	031H
	DB	0ffH
	DB	09cH
	DB	085H
	DB	031H
	DB	0ffH
	DB	09cH
	DB	085H
	DB	031H
	DB	0edH
	DB	09cH
	DB	086H
	DB	031H
	DB	093H
	DB	09dH
	DB	086H
	DB	031H
	DB	039H
	DB	00H
	DB	00H
	DB	00H
	DB	00H
	DB	00H
	DB	00H
	DB	00H
	DB	00H
	DB	00H
	DB	00H
	DB	00H
	DB	00H
	DB	00H
	DB	00H
	DB	00H
	DB	00H
	DB	00H
	DB	00H
	DB	00H
	DB	00H
	DB	00H
	DB	00H
	DB	00H
	DB	00H
	DB	00H
	DB	00H
	DB	00H
	DB	00H
	DB	00H
	DB	00H
	DB	00H
	DB	00H
	DB	00H
	DB	00H
	DB	00H
	DB	00H
	DB	09cH
	DB	085H
	DB	031H
	DB	062H
	DB	09cH
	DB	085H
	DB	032H
	DB	0d3H
	DB	09cH
	DB	085H
	DB	031H
	DB	0ffH
	DB	09cH
	DB	085H
	DB	031H
	DB	0ffH
	DB	09cH
	DB	085H
	DB	031H
	DB	0ffH
	DB	09cH
	DB	085H
	DB	031H
	DB	0ffH
	DB	09cH
	DB	085H
	DB	031H
	DB	0ffH
	DB	09cH
	DB	085H
	DB	031H
	DB	0ffH
	DB	09cH
	DB	085H
	DB	031H
	DB	0ffH
	DB	09cH
	DB	085H
	DB	031H
	DB	0ffH
	DB	09cH
	DB	085H
	DB	031H
	DB	0ffH
	DB	09cH
	DB	085H
	DB	031H
	DB	0ffH
	DB	09cH
	DB	085H
	DB	031H
	DB	0ffH
	DB	09cH
	DB	085H
	DB	031H
	DB	0ffH
	DB	09cH
	DB	085H
	DB	031H
	DB	0d9H
	DB	09cH
	DB	083H
	DB	032H
	DB	067H
	DB	00H
	DB	00H
	DB	00H
	DB	00H
	DB	00H
	DB	00H
	DB	00H
	DB	00H
	DB	00H
	DB	00H
	DB	00H
	DB	00H
	DB	00H
	DB	00H
	DB	00H
	DB	00H
	DB	00H
	DB	00H
	DB	00H
	DB	00H
	DB	00H
	DB	00H
	DB	00H
	DB	00H
	DB	00H
	DB	00H
	DB	00H
	DB	00H
	DB	09bH
	DB	084H
	DB	030H
	DB	070H
	DB	09cH
	DB	085H
	DB	031H
	DB	0ffH
	DB	09cH
	DB	085H
	DB	031H
	DB	0ffH
	DB	09cH
	DB	085H
	DB	031H
	DB	0ffH
	DB	09cH
	DB	085H
	DB	031H
	DB	0ffH
	DB	09cH
	DB	085H
	DB	031H
	DB	0ffH
	DB	09cH
	DB	085H
	DB	031H
	DB	0ffH
	DB	09cH
	DB	085H
	DB	031H
	DB	0ffH
	DB	09cH
	DB	085H
	DB	031H
	DB	0ffH
	DB	09cH
	DB	085H
	DB	031H
	DB	0ffH
	DB	09cH
	DB	085H
	DB	031H
	DB	0ffH
	DB	09cH
	DB	085H
	DB	031H
	DB	0ffH
	DB	09cH
	DB	085H
	DB	031H
	DB	0ffH
	DB	09cH
	DB	085H
	DB	031H
	DB	0ffH
	DB	09cH
	DB	085H
	DB	031H
	DB	0ffH
	DB	09cH
	DB	085H
	DB	031H
	DB	0ffH
	DB	09cH
	DB	085H
	DB	031H
	DB	0ffH
	DB	09bH
	DB	084H
	DB	030H
	DB	070H
	DB	00H
	DB	00H
	DB	00H
	DB	00H
	DB	00H
	DB	00H
	DB	00H
	DB	00H
	DB	00H
	DB	00H
	DB	00H
	DB	00H
	DB	00H
	DB	00H
	DB	00H
	DB	00H
	DB	00H
	DB	00H
	DB	00H
	DB	00H
	DB	09cH
	DB	085H
	DB	031H
	DB	062H
	DB	09cH
	DB	085H
	DB	031H
	DB	0f0H
	DB	09cH
	DB	085H
	DB	031H
	DB	0ffH
	DB	09cH
	DB	085H
	DB	031H
	DB	0ffH
	DB	09cH
	DB	085H
	DB	031H
	DB	0ffH
	DB	09cH
	DB	085H
	DB	031H
	DB	0ffH
	DB	09cH
	DB	085H
	DB	031H
	DB	0ffH
	DB	09cH
	DB	085H
	DB	031H
	DB	0ffH
	DB	09cH
	DB	085H
	DB	031H
	DB	0ffH
	DB	09cH
	DB	085H
	DB	031H
	DB	0ffH
	DB	09cH
	DB	085H
	DB	031H
	DB	0ffH
	DB	09cH
	DB	085H
	DB	031H
	DB	0ffH
	DB	09cH
	DB	085H
	DB	031H
	DB	0ffH
	DB	09cH
	DB	085H
	DB	031H
	DB	0ffH
	DB	09cH
	DB	085H
	DB	031H
	DB	0ffH
	DB	09cH
	DB	085H
	DB	031H
	DB	0ffH
	DB	09cH
	DB	085H
	DB	031H
	DB	0ffH
	DB	09cH
	DB	085H
	DB	031H
	DB	0ffH
	DB	09cH
	DB	085H
	DB	031H
	DB	0f0H
	DB	09cH
	DB	085H
	DB	031H
	DB	062H
	DB	00H
	DB	00H
	DB	00H
	DB	00H
	DB	00H
	DB	00H
	DB	00H
	DB	00H
	DB	00H
	DB	00H
	DB	00H
	DB	00H
	DB	09fH
	DB	080H
	DB	035H
	DB	018H
	DB	09cH
	DB	085H
	DB	031H
	DB	0f3H
	DB	09cH
	DB	085H
	DB	031H
	DB	0ffH
	DB	09cH
	DB	085H
	DB	031H
	DB	0ffH
	DB	09cH
	DB	085H
	DB	031H
	DB	0ffH
	DB	09cH
	DB	085H
	DB	031H
	DB	0ffH
	DB	09cH
	DB	085H
	DB	031H
	DB	0ffH
	DB	09cH
	DB	085H
	DB	031H
	DB	0ffH
	DB	09cH
	DB	085H
	DB	031H
	DB	0ffH
	DB	09cH
	DB	085H
	DB	031H
	DB	0ffH
	DB	09cH
	DB	085H
	DB	031H
	DB	0ffH
	DB	09cH
	DB	085H
	DB	031H
	DB	0ffH
	DB	09cH
	DB	085H
	DB	031H
	DB	0ffH
	DB	09cH
	DB	085H
	DB	031H
	DB	0ffH
	DB	09cH
	DB	085H
	DB	031H
	DB	0ffH
	DB	09cH
	DB	085H
	DB	031H
	DB	0ffH
	DB	09cH
	DB	085H
	DB	031H
	DB	0ffH
	DB	09cH
	DB	085H
	DB	031H
	DB	0ffH
	DB	09cH
	DB	085H
	DB	031H
	DB	0ffH
	DB	09cH
	DB	085H
	DB	031H
	DB	0ffH
	DB	09cH
	DB	085H
	DB	031H
	DB	0efH
	DB	09fH
	DB	080H
	DB	035H
	DB	018H
	DB	00H
	DB	00H
	DB	00H
	DB	00H
	DB	00H
	DB	00H
	DB	00H
	DB	00H
	DB	09dH
	DB	084H
	DB	031H
	DB	091H
	DB	09cH
	DB	085H
	DB	031H
	DB	0ffH
	DB	09cH
	DB	085H
	DB	031H
	DB	0ffH
	DB	09cH
	DB	085H
	DB	031H
	DB	0ffH
	DB	09cH
	DB	085H
	DB	031H
	DB	0ffH
	DB	09cH
	DB	085H
	DB	031H
	DB	0ffH
	DB	09cH
	DB	085H
	DB	031H
	DB	0ffH
	DB	09cH
	DB	085H
	DB	031H
	DB	0ffH
	DB	09cH
	DB	085H
	DB	031H
	DB	0ffH
	DB	09cH
	DB	085H
	DB	031H
	DB	0ffH
	DB	09cH
	DB	085H
	DB	031H
	DB	0ffH
	DB	09cH
	DB	085H
	DB	031H
	DB	0ffH
	DB	09cH
	DB	085H
	DB	031H
	DB	0ffH
	DB	09cH
	DB	085H
	DB	031H
	DB	0ffH
	DB	09cH
	DB	085H
	DB	031H
	DB	0ffH
	DB	09cH
	DB	085H
	DB	031H
	DB	0ffH
	DB	09cH
	DB	085H
	DB	031H
	DB	0ffH
	DB	09cH
	DB	085H
	DB	031H
	DB	0ffH
	DB	09cH
	DB	085H
	DB	031H
	DB	0ffH
	DB	09cH
	DB	085H
	DB	031H
	DB	0ffH
	DB	09cH
	DB	085H
	DB	031H
	DB	0ffH
	DB	09dH
	DB	084H
	DB	031H
	DB	091H
	DB	00H
	DB	00H
	DB	00H
	DB	00H
	DB	097H
	DB	087H
	DB	030H
	DB	020H
	DB	09cH
	DB	085H
	DB	031H
	DB	0fbH
	DB	09cH
	DB	085H
	DB	031H
	DB	0ffH
	DB	09cH
	DB	085H
	DB	031H
	DB	0ffH
	DB	09cH
	DB	085H
	DB	031H
	DB	0ffH
	DB	09cH
	DB	085H
	DB	031H
	DB	0ffH
	DB	09cH
	DB	085H
	DB	031H
	DB	0ffH
	DB	09cH
	DB	085H
	DB	031H
	DB	0ffH
	DB	09cH
	DB	085H
	DB	031H
	DB	0ffH
	DB	09cH
	DB	085H
	DB	031H
	DB	0ffH
	DB	09cH
	DB	085H
	DB	031H
	DB	0ffH
	DB	09cH
	DB	085H
	DB	031H
	DB	0ffH
	DB	09cH
	DB	085H
	DB	031H
	DB	0ffH
	DB	09cH
	DB	085H
	DB	031H
	DB	0ffH
	DB	09cH
	DB	085H
	DB	031H
	DB	0ffH
	DB	09cH
	DB	085H
	DB	031H
	DB	0ffH
	DB	09cH
	DB	085H
	DB	031H
	DB	0ffH
	DB	09cH
	DB	085H
	DB	031H
	DB	0ffH
	DB	09cH
	DB	085H
	DB	031H
	DB	0ffH
	DB	09cH
	DB	085H
	DB	031H
	DB	0ffH
	DB	09cH
	DB	085H
	DB	031H
	DB	0ffH
	DB	09cH
	DB	085H
	DB	031H
	DB	0ffH
	DB	09cH
	DB	085H
	DB	031H
	DB	0fbH
	DB	09bH
	DB	089H
	DB	02eH
	DB	01cH
	DB	09cH
	DB	085H
	DB	032H
	DB	071H
	DB	09cH
	DB	085H
	DB	031H
	DB	0ffH
	DB	09cH
	DB	085H
	DB	031H
	DB	0ffH
	DB	09cH
	DB	085H
	DB	031H
	DB	0ffH
	DB	09cH
	DB	085H
	DB	031H
	DB	0ffH
	DB	09cH
	DB	085H
	DB	031H
	DB	0ffH
	DB	09cH
	DB	085H
	DB	031H
	DB	0ffH
	DB	09cH
	DB	085H
	DB	031H
	DB	0ffH
	DB	09cH
	DB	085H
	DB	031H
	DB	0ffH
	DB	09cH
	DB	085H
	DB	031H
	DB	0ffH
	DB	09cH
	DB	085H
	DB	031H
	DB	0ffH
	DB	09cH
	DB	085H
	DB	031H
	DB	0ffH
	DB	09cH
	DB	085H
	DB	031H
	DB	0ffH
	DB	09cH
	DB	085H
	DB	031H
	DB	0ffH
	DB	09cH
	DB	085H
	DB	031H
	DB	0ffH
	DB	09cH
	DB	085H
	DB	031H
	DB	0ffH
	DB	09cH
	DB	085H
	DB	031H
	DB	0ffH
	DB	09cH
	DB	085H
	DB	031H
	DB	0ffH
	DB	09cH
	DB	085H
	DB	031H
	DB	0ffH
	DB	09cH
	DB	085H
	DB	031H
	DB	0ffH
	DB	09cH
	DB	085H
	DB	031H
	DB	0ffH
	DB	09cH
	DB	085H
	DB	031H
	DB	0ffH
	DB	09cH
	DB	085H
	DB	031H
	DB	0ffH
	DB	09cH
	DB	085H
	DB	032H
	DB	071H
	DB	09dH
	DB	086H
	DB	030H
	DB	0b3H
	DB	09cH
	DB	085H
	DB	031H
	DB	0ffH
	DB	09cH
	DB	085H
	DB	031H
	DB	0ffH
	DB	09cH
	DB	085H
	DB	031H
	DB	0ffH
	DB	09cH
	DB	085H
	DB	031H
	DB	0ffH
	DB	09cH
	DB	085H
	DB	031H
	DB	0ffH
	DB	09cH
	DB	085H
	DB	031H
	DB	0ffH
	DB	09cH
	DB	085H
	DB	031H
	DB	0ffH
	DB	09cH
	DB	085H
	DB	031H
	DB	0ffH
	DB	09cH
	DB	085H
	DB	031H
	DB	0ffH
	DB	09cH
	DB	085H
	DB	031H
	DB	0ffH
	DB	09cH
	DB	085H
	DB	031H
	DB	0ffH
	DB	09cH
	DB	085H
	DB	031H
	DB	0ffH
	DB	09cH
	DB	085H
	DB	031H
	DB	0ffH
	DB	09cH
	DB	085H
	DB	031H
	DB	0ffH
	DB	09cH
	DB	085H
	DB	031H
	DB	0ffH
	DB	09cH
	DB	085H
	DB	031H
	DB	0ffH
	DB	09cH
	DB	085H
	DB	031H
	DB	0ffH
	DB	09cH
	DB	085H
	DB	031H
	DB	0ffH
	DB	09cH
	DB	085H
	DB	031H
	DB	0ffH
	DB	09cH
	DB	085H
	DB	031H
	DB	0ffH
	DB	09cH
	DB	085H
	DB	031H
	DB	0ffH
	DB	09cH
	DB	085H
	DB	031H
	DB	0ffH
	DB	09dH
	DB	086H
	DB	030H
	DB	0b3H
	DB	09cH
	DB	084H
	DB	031H
	DB	0d0H
	DB	09cH
	DB	085H
	DB	031H
	DB	0ffH
	DB	09cH
	DB	085H
	DB	031H
	DB	0ffH
	DB	09cH
	DB	085H
	DB	031H
	DB	0ffH
	DB	09cH
	DB	085H
	DB	031H
	DB	0ffH
	DB	09cH
	DB	085H
	DB	031H
	DB	0ffH
	DB	09cH
	DB	085H
	DB	031H
	DB	0ffH
	DB	09cH
	DB	085H
	DB	031H
	DB	0ffH
	DB	09cH
	DB	085H
	DB	031H
	DB	0ffH
	DB	09cH
	DB	085H
	DB	031H
	DB	0ffH
	DB	09cH
	DB	085H
	DB	031H
	DB	0ffH
	DB	09cH
	DB	085H
	DB	031H
	DB	0ffH
	DB	09cH
	DB	085H
	DB	031H
	DB	0ffH
	DB	09cH
	DB	085H
	DB	031H
	DB	0ffH
	DB	09cH
	DB	085H
	DB	031H
	DB	0ffH
	DB	09cH
	DB	085H
	DB	031H
	DB	0ffH
	DB	09cH
	DB	085H
	DB	031H
	DB	0ffH
	DB	09cH
	DB	085H
	DB	031H
	DB	0ffH
	DB	09cH
	DB	085H
	DB	031H
	DB	0ffH
	DB	09cH
	DB	085H
	DB	031H
	DB	0ffH
	DB	09cH
	DB	085H
	DB	031H
	DB	0ffH
	DB	09cH
	DB	085H
	DB	031H
	DB	0ffH
	DB	09cH
	DB	085H
	DB	031H
	DB	0ffH
	DB	09cH
	DB	085H
	DB	031H
	DB	0cfH
	DB	09cH
	DB	085H
	DB	030H
	DB	0e8H
	DB	09cH
	DB	085H
	DB	031H
	DB	0ffH
	DB	09cH
	DB	085H
	DB	031H
	DB	0ffH
	DB	09cH
	DB	085H
	DB	031H
	DB	0ffH
	DB	09cH
	DB	085H
	DB	031H
	DB	0ffH
	DB	09cH
	DB	085H
	DB	031H
	DB	0ffH
	DB	09cH
	DB	085H
	DB	031H
	DB	0ffH
	DB	09cH
	DB	085H
	DB	031H
	DB	0ffH
	DB	09cH
	DB	085H
	DB	031H
	DB	0ffH
	DB	09cH
	DB	085H
	DB	031H
	DB	0ffH
	DB	09cH
	DB	085H
	DB	031H
	DB	0ffH
	DB	09cH
	DB	085H
	DB	031H
	DB	0ffH
	DB	09cH
	DB	085H
	DB	031H
	DB	0ffH
	DB	09cH
	DB	085H
	DB	031H
	DB	0ffH
	DB	09cH
	DB	085H
	DB	031H
	DB	0ffH
	DB	09cH
	DB	085H
	DB	031H
	DB	0ffH
	DB	09cH
	DB	085H
	DB	031H
	DB	0ffH
	DB	09cH
	DB	085H
	DB	031H
	DB	0ffH
	DB	09cH
	DB	085H
	DB	031H
	DB	0ffH
	DB	09cH
	DB	085H
	DB	031H
	DB	0ffH
	DB	09cH
	DB	085H
	DB	031H
	DB	0ffH
	DB	09cH
	DB	085H
	DB	031H
	DB	0ffH
	DB	09cH
	DB	085H
	DB	031H
	DB	0ffH
	DB	09cH
	DB	084H
	DB	031H
	DB	0e7H
	DB	09cH
	DB	086H
	DB	031H
	DB	0e7H
	DB	09cH
	DB	085H
	DB	031H
	DB	0ffH
	DB	09cH
	DB	085H
	DB	031H
	DB	0ffH
	DB	09cH
	DB	085H
	DB	031H
	DB	0ffH
	DB	09cH
	DB	085H
	DB	031H
	DB	0ffH
	DB	09cH
	DB	085H
	DB	031H
	DB	0ffH
	DB	09cH
	DB	085H
	DB	031H
	DB	0ffH
	DB	09cH
	DB	085H
	DB	031H
	DB	0ffH
	DB	09cH
	DB	085H
	DB	031H
	DB	0ffH
	DB	09cH
	DB	085H
	DB	031H
	DB	0ffH
	DB	09cH
	DB	085H
	DB	031H
	DB	0ffH
	DB	09cH
	DB	085H
	DB	031H
	DB	0ffH
	DB	09cH
	DB	085H
	DB	031H
	DB	0ffH
	DB	09cH
	DB	085H
	DB	031H
	DB	0ffH
	DB	09cH
	DB	085H
	DB	031H
	DB	0ffH
	DB	09cH
	DB	085H
	DB	031H
	DB	0ffH
	DB	09cH
	DB	085H
	DB	031H
	DB	0ffH
	DB	09cH
	DB	085H
	DB	031H
	DB	0ffH
	DB	09cH
	DB	085H
	DB	031H
	DB	0ffH
	DB	09cH
	DB	085H
	DB	031H
	DB	0ffH
	DB	09cH
	DB	085H
	DB	031H
	DB	0ffH
	DB	09cH
	DB	085H
	DB	031H
	DB	0ffH
	DB	09cH
	DB	085H
	DB	031H
	DB	0ffH
	DB	09cH
	DB	086H
	DB	031H
	DB	0e7H
	DB	09cH
	DB	084H
	DB	031H
	DB	0d0H
	DB	09cH
	DB	085H
	DB	031H
	DB	0ffH
	DB	09cH
	DB	085H
	DB	031H
	DB	0ffH
	DB	09cH
	DB	085H
	DB	031H
	DB	0ffH
	DB	09cH
	DB	085H
	DB	031H
	DB	0ffH
	DB	09cH
	DB	085H
	DB	031H
	DB	0ffH
	DB	09cH
	DB	085H
	DB	031H
	DB	0ffH
	DB	09cH
	DB	085H
	DB	031H
	DB	0ffH
	DB	09cH
	DB	085H
	DB	031H
	DB	0ffH
	DB	09cH
	DB	085H
	DB	031H
	DB	0ffH
	DB	09cH
	DB	085H
	DB	031H
	DB	0ffH
	DB	09cH
	DB	085H
	DB	031H
	DB	0ffH
	DB	09cH
	DB	085H
	DB	031H
	DB	0ffH
	DB	09cH
	DB	085H
	DB	031H
	DB	0ffH
	DB	09cH
	DB	085H
	DB	031H
	DB	0ffH
	DB	09cH
	DB	085H
	DB	031H
	DB	0ffH
	DB	09cH
	DB	085H
	DB	031H
	DB	0ffH
	DB	09cH
	DB	085H
	DB	031H
	DB	0ffH
	DB	09cH
	DB	085H
	DB	031H
	DB	0ffH
	DB	09cH
	DB	085H
	DB	031H
	DB	0ffH
	DB	09cH
	DB	085H
	DB	031H
	DB	0ffH
	DB	09cH
	DB	085H
	DB	031H
	DB	0ffH
	DB	09cH
	DB	085H
	DB	031H
	DB	0ffH
	DB	09cH
	DB	084H
	DB	031H
	DB	0d0H
	DB	09dH
	DB	086H
	DB	030H
	DB	0b3H
	DB	09cH
	DB	085H
	DB	031H
	DB	0ffH
	DB	09cH
	DB	085H
	DB	031H
	DB	0ffH
	DB	09cH
	DB	085H
	DB	031H
	DB	0ffH
	DB	09cH
	DB	085H
	DB	031H
	DB	0ffH
	DB	09cH
	DB	085H
	DB	031H
	DB	0ffH
	DB	09cH
	DB	085H
	DB	031H
	DB	0ffH
	DB	09cH
	DB	085H
	DB	031H
	DB	0ffH
	DB	09cH
	DB	085H
	DB	031H
	DB	0ffH
	DB	09cH
	DB	085H
	DB	031H
	DB	0ffH
	DB	09cH
	DB	085H
	DB	031H
	DB	0ffH
	DB	09cH
	DB	085H
	DB	031H
	DB	0ffH
	DB	09cH
	DB	085H
	DB	031H
	DB	0ffH
	DB	09cH
	DB	085H
	DB	031H
	DB	0ffH
	DB	09cH
	DB	085H
	DB	031H
	DB	0ffH
	DB	09cH
	DB	085H
	DB	031H
	DB	0ffH
	DB	09cH
	DB	085H
	DB	031H
	DB	0ffH
	DB	09cH
	DB	085H
	DB	031H
	DB	0ffH
	DB	09cH
	DB	085H
	DB	031H
	DB	0ffH
	DB	09cH
	DB	085H
	DB	031H
	DB	0ffH
	DB	09cH
	DB	085H
	DB	031H
	DB	0ffH
	DB	09cH
	DB	085H
	DB	031H
	DB	0ffH
	DB	09cH
	DB	085H
	DB	031H
	DB	0ffH
	DB	09dH
	DB	086H
	DB	030H
	DB	0b3H
	DB	09cH
	DB	085H
	DB	032H
	DB	071H
	DB	09cH
	DB	085H
	DB	031H
	DB	0ffH
	DB	09cH
	DB	085H
	DB	031H
	DB	0ffH
	DB	09cH
	DB	085H
	DB	031H
	DB	0ffH
	DB	09cH
	DB	085H
	DB	031H
	DB	0ffH
	DB	09cH
	DB	085H
	DB	031H
	DB	0ffH
	DB	09cH
	DB	085H
	DB	031H
	DB	0ffH
	DB	09cH
	DB	085H
	DB	031H
	DB	0ffH
	DB	09cH
	DB	085H
	DB	031H
	DB	0ffH
	DB	09cH
	DB	085H
	DB	031H
	DB	0ffH
	DB	09cH
	DB	085H
	DB	031H
	DB	0ffH
	DB	09cH
	DB	085H
	DB	031H
	DB	0ffH
	DB	09cH
	DB	085H
	DB	031H
	DB	0ffH
	DB	09cH
	DB	085H
	DB	031H
	DB	0ffH
	DB	09cH
	DB	085H
	DB	031H
	DB	0ffH
	DB	09cH
	DB	085H
	DB	031H
	DB	0ffH
	DB	09cH
	DB	085H
	DB	031H
	DB	0ffH
	DB	09cH
	DB	085H
	DB	031H
	DB	0ffH
	DB	09cH
	DB	085H
	DB	031H
	DB	0ffH
	DB	09cH
	DB	085H
	DB	031H
	DB	0ffH
	DB	09cH
	DB	085H
	DB	031H
	DB	0ffH
	DB	09cH
	DB	085H
	DB	031H
	DB	0ffH
	DB	09cH
	DB	085H
	DB	031H
	DB	0ffH
	DB	09cH
	DB	085H
	DB	032H
	DB	071H
	DB	097H
	DB	087H
	DB	030H
	DB	020H
	DB	09cH
	DB	085H
	DB	031H
	DB	0fbH
	DB	09cH
	DB	085H
	DB	031H
	DB	0ffH
	DB	09cH
	DB	085H
	DB	031H
	DB	0ffH
	DB	09cH
	DB	085H
	DB	031H
	DB	0ffH
	DB	09cH
	DB	085H
	DB	031H
	DB	0ffH
	DB	09cH
	DB	085H
	DB	031H
	DB	0ffH
	DB	09cH
	DB	085H
	DB	031H
	DB	0ffH
	DB	09cH
	DB	085H
	DB	031H
	DB	0ffH
	DB	09cH
	DB	085H
	DB	031H
	DB	0ffH
	DB	09cH
	DB	085H
	DB	031H
	DB	0ffH
	DB	09cH
	DB	085H
	DB	031H
	DB	0ffH
	DB	09cH
	DB	085H
	DB	031H
	DB	0ffH
	DB	09cH
	DB	085H
	DB	031H
	DB	0ffH
	DB	09cH
	DB	085H
	DB	031H
	DB	0ffH
	DB	09cH
	DB	085H
	DB	031H
	DB	0ffH
	DB	09cH
	DB	085H
	DB	031H
	DB	0ffH
	DB	09cH
	DB	085H
	DB	031H
	DB	0ffH
	DB	09cH
	DB	085H
	DB	031H
	DB	0ffH
	DB	09cH
	DB	085H
	DB	031H
	DB	0ffH
	DB	09cH
	DB	085H
	DB	031H
	DB	0ffH
	DB	09cH
	DB	085H
	DB	031H
	DB	0ffH
	DB	09cH
	DB	085H
	DB	031H
	DB	0fbH
	DB	09bH
	DB	089H
	DB	02eH
	DB	01cH
	DB	00H
	DB	00H
	DB	00H
	DB	00H
	DB	09cH
	DB	086H
	DB	031H
	DB	093H
	DB	09cH
	DB	085H
	DB	031H
	DB	0ffH
	DB	09cH
	DB	085H
	DB	031H
	DB	0ffH
	DB	09cH
	DB	085H
	DB	031H
	DB	0ffH
	DB	09cH
	DB	085H
	DB	031H
	DB	0ffH
	DB	09cH
	DB	085H
	DB	031H
	DB	0ffH
	DB	09cH
	DB	085H
	DB	031H
	DB	0ffH
	DB	09cH
	DB	085H
	DB	031H
	DB	0ffH
	DB	09cH
	DB	085H
	DB	031H
	DB	0ffH
	DB	09cH
	DB	085H
	DB	031H
	DB	0ffH
	DB	09cH
	DB	085H
	DB	031H
	DB	0ffH
	DB	09cH
	DB	085H
	DB	031H
	DB	0ffH
	DB	09cH
	DB	085H
	DB	031H
	DB	0ffH
	DB	09cH
	DB	085H
	DB	031H
	DB	0ffH
	DB	09cH
	DB	085H
	DB	031H
	DB	0ffH
	DB	09cH
	DB	085H
	DB	031H
	DB	0ffH
	DB	09cH
	DB	085H
	DB	031H
	DB	0ffH
	DB	09cH
	DB	085H
	DB	031H
	DB	0ffH
	DB	09cH
	DB	085H
	DB	031H
	DB	0ffH
	DB	09cH
	DB	085H
	DB	031H
	DB	0ffH
	DB	09cH
	DB	085H
	DB	031H
	DB	0ffH
	DB	09cH
	DB	086H
	DB	031H
	DB	093H
	DB	00H
	DB	00H
	DB	00H
	DB	00H
	DB	00H
	DB	00H
	DB	00H
	DB	00H
	DB	09bH
	DB	089H
	DB	02eH
	DB	01cH
	DB	09cH
	DB	085H
	DB	031H
	DB	0f3H
	DB	09cH
	DB	085H
	DB	031H
	DB	0ffH
	DB	09cH
	DB	085H
	DB	031H
	DB	0ffH
	DB	09cH
	DB	085H
	DB	031H
	DB	0ffH
	DB	09cH
	DB	085H
	DB	031H
	DB	0ffH
	DB	09cH
	DB	085H
	DB	031H
	DB	0ffH
	DB	09cH
	DB	085H
	DB	031H
	DB	0ffH
	DB	09cH
	DB	085H
	DB	031H
	DB	0ffH
	DB	09cH
	DB	085H
	DB	031H
	DB	0ffH
	DB	09cH
	DB	085H
	DB	031H
	DB	0ffH
	DB	09cH
	DB	085H
	DB	031H
	DB	0ffH
	DB	09cH
	DB	085H
	DB	031H
	DB	0ffH
	DB	09cH
	DB	085H
	DB	031H
	DB	0ffH
	DB	09cH
	DB	085H
	DB	031H
	DB	0ffH
	DB	09cH
	DB	085H
	DB	031H
	DB	0ffH
	DB	09cH
	DB	085H
	DB	031H
	DB	0ffH
	DB	09cH
	DB	085H
	DB	031H
	DB	0ffH
	DB	09cH
	DB	085H
	DB	031H
	DB	0ffH
	DB	09cH
	DB	085H
	DB	031H
	DB	0ffH
	DB	09cH
	DB	085H
	DB	031H
	DB	0f3H
	DB	09fH
	DB	080H
	DB	035H
	DB	018H
	DB	00H
	DB	00H
	DB	00H
	DB	00H
	DB	00H
	DB	00H
	DB	00H
	DB	00H
	DB	00H
	DB	00H
	DB	00H
	DB	00H
	DB	09eH
	DB	085H
	DB	032H
	DB	066H
	DB	09cH
	DB	085H
	DB	032H
	DB	0f2H
	DB	09cH
	DB	085H
	DB	031H
	DB	0ffH
	DB	09cH
	DB	085H
	DB	031H
	DB	0ffH
	DB	09cH
	DB	085H
	DB	031H
	DB	0ffH
	DB	09cH
	DB	085H
	DB	031H
	DB	0ffH
	DB	09cH
	DB	085H
	DB	031H
	DB	0ffH
	DB	09cH
	DB	085H
	DB	031H
	DB	0ffH
	DB	09cH
	DB	085H
	DB	031H
	DB	0ffH
	DB	09cH
	DB	085H
	DB	031H
	DB	0ffH
	DB	09cH
	DB	085H
	DB	031H
	DB	0ffH
	DB	09cH
	DB	085H
	DB	031H
	DB	0ffH
	DB	09cH
	DB	085H
	DB	031H
	DB	0ffH
	DB	09cH
	DB	085H
	DB	031H
	DB	0ffH
	DB	09cH
	DB	085H
	DB	031H
	DB	0ffH
	DB	09cH
	DB	085H
	DB	031H
	DB	0ffH
	DB	09cH
	DB	085H
	DB	031H
	DB	0ffH
	DB	09cH
	DB	085H
	DB	031H
	DB	0ffH
	DB	09cH
	DB	085H
	DB	032H
	DB	0f2H
	DB	09eH
	DB	085H
	DB	032H
	DB	066H
	DB	00H
	DB	00H
	DB	00H
	DB	00H
	DB	00H
	DB	00H
	DB	00H
	DB	00H
	DB	00H
	DB	00H
	DB	00H
	DB	00H
	DB	00H
	DB	00H
	DB	00H
	DB	00H
	DB	00H
	DB	00H
	DB	00H
	DB	00H
	DB	09bH
	DB	084H
	DB	030H
	DB	070H
	DB	09cH
	DB	085H
	DB	031H
	DB	0ffH
	DB	09cH
	DB	085H
	DB	031H
	DB	0ffH
	DB	09cH
	DB	085H
	DB	031H
	DB	0ffH
	DB	09cH
	DB	085H
	DB	031H
	DB	0ffH
	DB	09cH
	DB	085H
	DB	031H
	DB	0ffH
	DB	09cH
	DB	085H
	DB	031H
	DB	0ffH
	DB	09cH
	DB	085H
	DB	031H
	DB	0ffH
	DB	09cH
	DB	085H
	DB	031H
	DB	0ffH
	DB	09cH
	DB	085H
	DB	031H
	DB	0ffH
	DB	09cH
	DB	085H
	DB	031H
	DB	0ffH
	DB	09cH
	DB	085H
	DB	031H
	DB	0ffH
	DB	09cH
	DB	085H
	DB	031H
	DB	0ffH
	DB	09cH
	DB	085H
	DB	031H
	DB	0ffH
	DB	09cH
	DB	085H
	DB	031H
	DB	0ffH
	DB	09cH
	DB	085H
	DB	031H
	DB	0ffH
	DB	09cH
	DB	085H
	DB	031H
	DB	0ffH
	DB	09bH
	DB	084H
	DB	030H
	DB	070H
	DB	00H
	DB	00H
	DB	00H
	DB	00H
	DB	00H
	DB	00H
	DB	00H
	DB	00H
	DB	00H
	DB	00H
	DB	00H
	DB	00H
	DB	00H
	DB	00H
	DB	00H
	DB	00H
	DB	00H
	DB	00H
	DB	00H
	DB	00H
	DB	00H
	DB	00H
	DB	00H
	DB	00H
	DB	00H
	DB	00H
	DB	00H
	DB	00H
	DB	09aH
	DB	083H
	DB	032H
	DB	04cH
	DB	09cH
	DB	085H
	DB	031H
	DB	0f3H
	DB	09cH
	DB	085H
	DB	031H
	DB	0ffH
	DB	09cH
	DB	085H
	DB	031H
	DB	0ffH
	DB	09cH
	DB	085H
	DB	031H
	DB	0ffH
	DB	09cH
	DB	085H
	DB	031H
	DB	0ffH
	DB	09cH
	DB	085H
	DB	031H
	DB	0ffH
	DB	09cH
	DB	085H
	DB	031H
	DB	0ffH
	DB	09cH
	DB	085H
	DB	031H
	DB	0ffH
	DB	09cH
	DB	085H
	DB	031H
	DB	0ffH
	DB	09cH
	DB	085H
	DB	031H
	DB	0ffH
	DB	09cH
	DB	085H
	DB	031H
	DB	0ffH
	DB	09cH
	DB	085H
	DB	031H
	DB	0ffH
	DB	09cH
	DB	085H
	DB	031H
	DB	0ffH
	DB	09cH
	DB	085H
	DB	031H
	DB	0f3H
	DB	09bH
	DB	086H
	DB	031H
	DB	054H
	DB	00H
	DB	00H
	DB	00H
	DB	00H
	DB	00H
	DB	00H
	DB	00H
	DB	00H
	DB	00H
	DB	00H
	DB	00H
	DB	00H
	DB	00H
	DB	00H
	DB	00H
	DB	00H
	DB	00H
	DB	00H
	DB	00H
	DB	00H
	DB	00H
	DB	00H
	DB	00H
	DB	00H
	DB	00H
	DB	00H
	DB	00H
	DB	00H
	DB	00H
	DB	00H
	DB	00H
	DB	00H
	DB	00H
	DB	00H
	DB	00H
	DB	00H
	DB	09aH
	DB	087H
	DB	030H
	DB	035H
	DB	09dH
	DB	086H
	DB	031H
	DB	091H
	DB	09cH
	DB	084H
	DB	030H
	DB	0edH
	DB	09cH
	DB	085H
	DB	031H
	DB	0ffH
	DB	09cH
	DB	085H
	DB	031H
	DB	0ffH
	DB	09cH
	DB	085H
	DB	031H
	DB	0ffH
	DB	09cH
	DB	085H
	DB	031H
	DB	0ffH
	DB	09cH
	DB	085H
	DB	031H
	DB	0ffH
	DB	09cH
	DB	085H
	DB	031H
	DB	0ffH
	DB	09cH
	DB	085H
	DB	031H
	DB	0ffH
	DB	09cH
	DB	085H
	DB	031H
	DB	0ffH
	DB	09cH
	DB	085H
	DB	031H
	DB	0edH
	DB	09cH
	DB	086H
	DB	031H
	DB	093H
	DB	09dH
	DB	086H
	DB	031H
	DB	039H
	DB	00H
	DB	00H
	DB	00H
	DB	00H
	DB	00H
	DB	00H
	DB	00H
	DB	00H
	DB	00H
	DB	00H
	DB	00H
	DB	00H
	DB	00H
	DB	00H
	DB	00H
	DB	00H
	DB	00H
	DB	00H
	DB	00H
	DB	00H
	DB	00H
	DB	00H
	DB	00H
	DB	00H
	DB	00H
	DB	00H
	DB	00H
	DB	00H
	DB	00H
	DB	00H
	DB	00H
	DB	00H
	DB	00H
	DB	00H
	DB	00H
	DB	00H
	DB	00H
	DB	00H
	DB	00H
	DB	00H
	DB	00H
	DB	00H
	DB	00H
	DB	00H
	DB	00H
	DB	00H
	DB	00H
	DB	00H
	DB	097H
	DB	087H
	DB	030H
	DB	020H
	DB	09cH
	DB	084H
	DB	032H
	DB	06cH
	DB	09dH
	DB	086H
	DB	030H
	DB	0b3H
	DB	09cH
	DB	085H
	DB	031H
	DB	0dbH
	DB	09cH
	DB	085H
	DB	031H
	DB	0f3H
	DB	09cH
	DB	085H
	DB	031H
	DB	0f3H
	DB	09cH
	DB	085H
	DB	031H
	DB	0dbH
	DB	09dH
	DB	086H
	DB	030H
	DB	0b3H
	DB	09cH
	DB	084H
	DB	032H
	DB	06cH
	DB	09bH
	DB	089H
	DB	02eH
	DB	01cH
	DB	00H
	DB	00H
	DB	00H
	DB	00H
	DB	00H
	DB	00H
	DB	00H
	DB	00H
	DB	00H
	DB	00H
	DB	00H
	DB	00H
	DB	00H
	DB	00H
	DB	00H
	DB	00H
	DB	00H
	DB	00H
	DB	00H
	DB	00H
	DB	00H
	DB	00H
	DB	00H
	DB	00H
	DB	00H
	DB	00H
	DB	00H
	DB	00H
CONST	ENDS
END
