; Listing generated by Microsoft (R) Optimizing Compiler Version 19.22.27905.0 

	TITLE	C:\TouchGFXProjects\RPCTest\TouchGFX\generated\images\src\BitmapDatabase.cpp
	.686P
	.XMM
	include listing.inc
	.model	flat

INCLUDELIB MSVCRTD
INCLUDELIB OLDNAMES

msvcjmc	SEGMENT
__E6CB534E_Types@hpp DB 01H
__CFC461D7_vcruntime_new@h DB 01H
__D267A05E_Bitmap@hpp DB 01H
__BA01B0EB_Unicode@hpp DB 01H
__5BB21980_Font@hpp DB 01H
__4856000C_TextureMapTypes@hpp DB 01H
__7242C389_ctype@h DB 01H
__90A1F774_basetsd@h DB 01H
__367CC694_corecrt_memcpy_s@h DB 01H
__35D7DDB3_corecrt_memory@h DB 01H
__DC9673E3_corecrt_wstring@h DB 01H
__A29A7DFB_string@h DB 01H
__3C23D660_guiddef@h DB 01H
__AF541008_winnt@h DB 01H
__0D001789_processthreadsapi@h DB 01H
__F972325D_memoryapi@h DB 01H
__76CD430D_winerror@h DB 01H
__737D49DB_winbase@h DB 01H
__1B9502AC_winuser@h DB 01H
__376EBCA0_winioctl@h DB 01H
__24E9E95F_stdlib@h DB 01H
__2CCBBE23_propidl@h DB 01H
__AD360DAF_oleauto@h DB 01H
__0396F1A5_stralign@h DB 01H
__F66CEB67_corecrt_stdio_config@h DB 01H
__101834BA_corecrt_wstdio@h DB 01H
__AD6A91B7_stdio@h DB 01H
__A927F87F_LCD@hpp DB 01H
__993C0184_Event@hpp DB 01H
__6A7D8ED5_ClickEvent@hpp DB 01H
__E3B02C15_DragEvent@hpp DB 01H
__018F7F30_GestureEvent@hpp DB 01H
__7A665F04_UIEventListener@hpp DB 01H
__A3CA383B_Gestures@hpp DB 01H
__C95F5ECF_Atomic@hpp DB 01H
__67D659BF_DMA@hpp DB 01H
__72CC8BF6_FrameBufferAllocator@hpp DB 01H
__0C9AA946_Transition@hpp DB 01H
__B5E94407_Application@hpp DB 01H
__0D170848_Callback@hpp DB 01H
__64F105DB_Drawable@hpp DB 01H
__3791AD23_TouchController@hpp DB 01H
__CD15FA98_ButtonController@hpp DB 01H
__08D007D3_MCUInstrumentation@hpp DB 01H
__2F243701_HAL@hpp DB 01H
__CFCA8657_LCD24bpp@hpp DB 01H
__EFBBDE62_BitmapDatabase@cpp DB 01H
msvcjmc	ENDS
PUBLIC	?getInstance@BitmapDatabase@@YAPBUBitmapData@Bitmap@touchgfx@@XZ ; BitmapDatabase::getInstance
PUBLIC	?getInstanceSize@BitmapDatabase@@YAGXZ		; BitmapDatabase::getInstanceSize
PUBLIC	__JustMyCode_Default
EXTRN	@__CheckForDebuggerJustMyCode@4:PROC
EXTRN	__RTC_CheckEsp:PROC
EXTRN	__RTC_InitBase:PROC
EXTRN	__RTC_Shutdown:PROC
EXTRN	?_a01_btn@@3QBEB:BYTE				; _a01_btn
EXTRN	?_a04_led_g@@3QBEB:BYTE				; _a04_led_g
EXTRN	?_a05_led_r@@3QBEB:BYTE				; _a05_led_r
EXTRN	?_a06_led_w@@3QBEB:BYTE				; _a06_led_w
EXTRN	?_a09_sel@@3QBEB:BYTE				; _a09_sel
EXTRN	?_b07_led_g@@3QBEB:BYTE				; _b07_led_g
EXTRN	?_b08_led_r@@3QBEB:BYTE				; _b08_led_r
EXTRN	?_b09_led_b@@3QBEB:BYTE				; _b09_led_b
EXTRN	?_background@@3QBEB:BYTE			; _background
EXTRN	?_blue_buttons_round_small@@3QBEB:BYTE		; _blue_buttons_round_small
EXTRN	?_blue_buttons_round_small_pressed@@3QBEB:BYTE	; _blue_buttons_round_small_pressed
EXTRN	?_c01_btn@@3QBEB:BYTE				; _c01_btn
EXTRN	?_c01_btn_selected@@3QBEB:BYTE			; _c01_btn_selected
EXTRN	?_clocks_backgrounds_clock_classic_background@@3QBEB:BYTE ; _clocks_backgrounds_clock_classic_background
EXTRN	?_clocks_hands_clock_classic_hour_hand@@3QBEB:BYTE ; _clocks_hands_clock_classic_hour_hand
EXTRN	?_clocks_hands_clock_classic_minute_hand@@3QBEB:BYTE ; _clocks_hands_clock_classic_minute_hand
EXTRN	?_clocks_hands_clock_classic_second_hand@@3QBEB:BYTE ; _clocks_hands_clock_classic_second_hand
EXTRN	?_f01start@@3QBEB:BYTE				; _f01start
EXTRN	?_f02status@@3QBEB:BYTE				; _f02status
EXTRN	?_f03control@@3QBEB:BYTE			; _f03control
EXTRN	?_selectmenu_none@@3QBEB:BYTE			; _selectmenu_none
_BSS	SEGMENT
?bitmap_database@@3QBUBitmapData@Bitmap@touchgfx@@B DB 01a4H DUP (?) ; bitmap_database
_BSS	ENDS
CRT$XCU	SEGMENT
?bitmap_database$initializer$@@3P6AXXZA DD FLAT:??__Ebitmap_database@@YAXXZ ; bitmap_database$initializer$
CRT$XCU	ENDS
;	COMDAT rtc$TMZ
rtc$TMZ	SEGMENT
__RTC_Shutdown.rtc$TMZ DD FLAT:__RTC_Shutdown
rtc$TMZ	ENDS
;	COMDAT rtc$IMZ
rtc$IMZ	SEGMENT
__RTC_InitBase.rtc$IMZ DD FLAT:__RTC_InitBase
rtc$IMZ	ENDS
; Function compile flags: /Odt
;	COMDAT __JustMyCode_Default
_TEXT	SEGMENT
__JustMyCode_Default PROC				; COMDAT
	push	ebp
	mov	ebp, esp
	pop	ebp
	ret	0
__JustMyCode_Default ENDP
_TEXT	ENDS
; Function compile flags: /Odtp /RTCsu /ZI
;	COMDAT ??__Ebitmap_database@@YAXXZ
text$di	SEGMENT
??__Ebitmap_database@@YAXXZ PROC			; `dynamic initializer for 'bitmap_database'', COMDAT
; File C:\TouchGFXProjects\RPCTest\TouchGFX\generated\images\src\BitmapDatabase.cpp
; Line 54
	push	ebp
	mov	ebp, esp
	sub	esp, 192				; 000000c0H
	push	ebx
	push	esi
	push	edi
	lea	edi, DWORD PTR [ebp-192]
	mov	ecx, 48					; 00000030H
	mov	eax, -858993460				; ccccccccH
	rep stosd
	mov	ecx, OFFSET __EFBBDE62_BitmapDatabase@cpp
	call	@__CheckForDebuggerJustMyCode@4
; Line 33
	mov	DWORD PTR ?bitmap_database@@3QBUBitmapData@Bitmap@touchgfx@@B, OFFSET ?_a01_btn@@3QBEB ; _a01_btn
	mov	DWORD PTR ?bitmap_database@@3QBUBitmapData@Bitmap@touchgfx@@B+4, 0
	mov	eax, 121				; 00000079H
	mov	WORD PTR ?bitmap_database@@3QBUBitmapData@Bitmap@touchgfx@@B+8, ax
	mov	eax, 33					; 00000021H
	mov	WORD PTR ?bitmap_database@@3QBUBitmapData@Bitmap@touchgfx@@B+10, ax
	mov	eax, 11					; 0000000bH
	mov	WORD PTR ?bitmap_database@@3QBUBitmapData@Bitmap@touchgfx@@B+12, ax
	mov	eax, 4
	mov	WORD PTR ?bitmap_database@@3QBUBitmapData@Bitmap@touchgfx@@B+14, ax
	mov	eax, 97					; 00000061H
	mov	WORD PTR ?bitmap_database@@3QBUBitmapData@Bitmap@touchgfx@@B+16, ax
	mov	eax, 16406				; 00004016H
	mov	WORD PTR ?bitmap_database@@3QBUBitmapData@Bitmap@touchgfx@@B+18, ax
; Line 34
	mov	DWORD PTR ?bitmap_database@@3QBUBitmapData@Bitmap@touchgfx@@B+20, OFFSET ?_a04_led_g@@3QBEB ; _a04_led_g
	mov	DWORD PTR ?bitmap_database@@3QBUBitmapData@Bitmap@touchgfx@@B+24, 0
	mov	eax, 40					; 00000028H
	mov	WORD PTR ?bitmap_database@@3QBUBitmapData@Bitmap@touchgfx@@B+28, ax
	mov	eax, 41					; 00000029H
	mov	WORD PTR ?bitmap_database@@3QBUBitmapData@Bitmap@touchgfx@@B+30, ax
	mov	eax, 7
	mov	WORD PTR ?bitmap_database@@3QBUBitmapData@Bitmap@touchgfx@@B+32, ax
	mov	eax, 8
	mov	WORD PTR ?bitmap_database@@3QBUBitmapData@Bitmap@touchgfx@@B+34, ax
	mov	eax, 17					; 00000011H
	mov	WORD PTR ?bitmap_database@@3QBUBitmapData@Bitmap@touchgfx@@B+36, ax
	mov	eax, 16400				; 00004010H
	mov	WORD PTR ?bitmap_database@@3QBUBitmapData@Bitmap@touchgfx@@B+38, ax
; Line 35
	mov	DWORD PTR ?bitmap_database@@3QBUBitmapData@Bitmap@touchgfx@@B+40, OFFSET ?_a05_led_r@@3QBEB ; _a05_led_r
	mov	DWORD PTR ?bitmap_database@@3QBUBitmapData@Bitmap@touchgfx@@B+44, 0
	mov	eax, 40					; 00000028H
	mov	WORD PTR ?bitmap_database@@3QBUBitmapData@Bitmap@touchgfx@@B+48, ax
	mov	eax, 41					; 00000029H
	mov	WORD PTR ?bitmap_database@@3QBUBitmapData@Bitmap@touchgfx@@B+50, ax
	mov	eax, 7
	mov	WORD PTR ?bitmap_database@@3QBUBitmapData@Bitmap@touchgfx@@B+52, ax
	mov	eax, 8
	mov	WORD PTR ?bitmap_database@@3QBUBitmapData@Bitmap@touchgfx@@B+54, ax
	mov	eax, 17					; 00000011H
	mov	WORD PTR ?bitmap_database@@3QBUBitmapData@Bitmap@touchgfx@@B+56, ax
	mov	eax, 16400				; 00004010H
	mov	WORD PTR ?bitmap_database@@3QBUBitmapData@Bitmap@touchgfx@@B+58, ax
; Line 36
	mov	DWORD PTR ?bitmap_database@@3QBUBitmapData@Bitmap@touchgfx@@B+60, OFFSET ?_a06_led_w@@3QBEB ; _a06_led_w
	mov	DWORD PTR ?bitmap_database@@3QBUBitmapData@Bitmap@touchgfx@@B+64, 0
	mov	eax, 40					; 00000028H
	mov	WORD PTR ?bitmap_database@@3QBUBitmapData@Bitmap@touchgfx@@B+68, ax
	mov	eax, 41					; 00000029H
	mov	WORD PTR ?bitmap_database@@3QBUBitmapData@Bitmap@touchgfx@@B+70, ax
	mov	eax, 7
	mov	WORD PTR ?bitmap_database@@3QBUBitmapData@Bitmap@touchgfx@@B+72, ax
	mov	eax, 8
	mov	WORD PTR ?bitmap_database@@3QBUBitmapData@Bitmap@touchgfx@@B+74, ax
	mov	eax, 17					; 00000011H
	mov	WORD PTR ?bitmap_database@@3QBUBitmapData@Bitmap@touchgfx@@B+76, ax
	mov	eax, 16400				; 00004010H
	mov	WORD PTR ?bitmap_database@@3QBUBitmapData@Bitmap@touchgfx@@B+78, ax
; Line 37
	mov	DWORD PTR ?bitmap_database@@3QBUBitmapData@Bitmap@touchgfx@@B+80, OFFSET ?_a09_sel@@3QBEB ; _a09_sel
	mov	DWORD PTR ?bitmap_database@@3QBUBitmapData@Bitmap@touchgfx@@B+84, 0
	mov	eax, 114				; 00000072H
	mov	WORD PTR ?bitmap_database@@3QBUBitmapData@Bitmap@touchgfx@@B+88, ax
	mov	eax, 30					; 0000001eH
	mov	WORD PTR ?bitmap_database@@3QBUBitmapData@Bitmap@touchgfx@@B+90, ax
	xor	eax, eax
	mov	WORD PTR ?bitmap_database@@3QBUBitmapData@Bitmap@touchgfx@@B+92, ax
	xor	eax, eax
	mov	WORD PTR ?bitmap_database@@3QBUBitmapData@Bitmap@touchgfx@@B+94, ax
	xor	eax, eax
	mov	WORD PTR ?bitmap_database@@3QBUBitmapData@Bitmap@touchgfx@@B+96, ax
	mov	eax, 16384				; 00004000H
	mov	WORD PTR ?bitmap_database@@3QBUBitmapData@Bitmap@touchgfx@@B+98, ax
; Line 38
	mov	DWORD PTR ?bitmap_database@@3QBUBitmapData@Bitmap@touchgfx@@B+100, OFFSET ?_b07_led_g@@3QBEB ; _b07_led_g
	mov	DWORD PTR ?bitmap_database@@3QBUBitmapData@Bitmap@touchgfx@@B+104, 0
	mov	eax, 25					; 00000019H
	mov	WORD PTR ?bitmap_database@@3QBUBitmapData@Bitmap@touchgfx@@B+108, ax
	mov	eax, 25					; 00000019H
	mov	WORD PTR ?bitmap_database@@3QBUBitmapData@Bitmap@touchgfx@@B+110, ax
	mov	eax, 4
	mov	WORD PTR ?bitmap_database@@3QBUBitmapData@Bitmap@touchgfx@@B+112, ax
	mov	eax, 3
	mov	WORD PTR ?bitmap_database@@3QBUBitmapData@Bitmap@touchgfx@@B+114, ax
	mov	eax, 16					; 00000010H
	mov	WORD PTR ?bitmap_database@@3QBUBitmapData@Bitmap@touchgfx@@B+116, ax
	mov	eax, 16401				; 00004011H
	mov	WORD PTR ?bitmap_database@@3QBUBitmapData@Bitmap@touchgfx@@B+118, ax
; Line 39
	mov	DWORD PTR ?bitmap_database@@3QBUBitmapData@Bitmap@touchgfx@@B+120, OFFSET ?_b08_led_r@@3QBEB ; _b08_led_r
	mov	DWORD PTR ?bitmap_database@@3QBUBitmapData@Bitmap@touchgfx@@B+124, 0
	mov	eax, 25					; 00000019H
	mov	WORD PTR ?bitmap_database@@3QBUBitmapData@Bitmap@touchgfx@@B+128, ax
	mov	eax, 25					; 00000019H
	mov	WORD PTR ?bitmap_database@@3QBUBitmapData@Bitmap@touchgfx@@B+130, ax
	mov	eax, 4
	mov	WORD PTR ?bitmap_database@@3QBUBitmapData@Bitmap@touchgfx@@B+132, ax
	mov	eax, 3
	mov	WORD PTR ?bitmap_database@@3QBUBitmapData@Bitmap@touchgfx@@B+134, ax
	mov	eax, 16					; 00000010H
	mov	WORD PTR ?bitmap_database@@3QBUBitmapData@Bitmap@touchgfx@@B+136, ax
	mov	eax, 16401				; 00004011H
	mov	WORD PTR ?bitmap_database@@3QBUBitmapData@Bitmap@touchgfx@@B+138, ax
; Line 40
	mov	DWORD PTR ?bitmap_database@@3QBUBitmapData@Bitmap@touchgfx@@B+140, OFFSET ?_b09_led_b@@3QBEB ; _b09_led_b
	mov	DWORD PTR ?bitmap_database@@3QBUBitmapData@Bitmap@touchgfx@@B+144, 0
	mov	eax, 24					; 00000018H
	mov	WORD PTR ?bitmap_database@@3QBUBitmapData@Bitmap@touchgfx@@B+148, ax
	mov	eax, 24					; 00000018H
	mov	WORD PTR ?bitmap_database@@3QBUBitmapData@Bitmap@touchgfx@@B+150, ax
	mov	eax, 4
	mov	WORD PTR ?bitmap_database@@3QBUBitmapData@Bitmap@touchgfx@@B+152, ax
	mov	eax, 3
	mov	WORD PTR ?bitmap_database@@3QBUBitmapData@Bitmap@touchgfx@@B+154, ax
	mov	eax, 16					; 00000010H
	mov	WORD PTR ?bitmap_database@@3QBUBitmapData@Bitmap@touchgfx@@B+156, ax
	mov	eax, 16402				; 00004012H
	mov	WORD PTR ?bitmap_database@@3QBUBitmapData@Bitmap@touchgfx@@B+158, ax
; Line 41
	mov	DWORD PTR ?bitmap_database@@3QBUBitmapData@Bitmap@touchgfx@@B+160, OFFSET ?_background@@3QBEB ; _background
	mov	DWORD PTR ?bitmap_database@@3QBUBitmapData@Bitmap@touchgfx@@B+164, 0
	mov	eax, 94					; 0000005eH
	mov	WORD PTR ?bitmap_database@@3QBUBitmapData@Bitmap@touchgfx@@B+168, ax
	mov	eax, 88					; 00000058H
	mov	WORD PTR ?bitmap_database@@3QBUBitmapData@Bitmap@touchgfx@@B+170, ax
	xor	eax, eax
	mov	WORD PTR ?bitmap_database@@3QBUBitmapData@Bitmap@touchgfx@@B+172, ax
	xor	eax, eax
	mov	WORD PTR ?bitmap_database@@3QBUBitmapData@Bitmap@touchgfx@@B+174, ax
	mov	eax, 94					; 0000005eH
	mov	WORD PTR ?bitmap_database@@3QBUBitmapData@Bitmap@touchgfx@@B+176, ax
	mov	eax, 8280				; 00002058H
	mov	WORD PTR ?bitmap_database@@3QBUBitmapData@Bitmap@touchgfx@@B+178, ax
; Line 42
	mov	DWORD PTR ?bitmap_database@@3QBUBitmapData@Bitmap@touchgfx@@B+180, OFFSET ?_blue_buttons_round_small@@3QBEB ; _blue_buttons_round_small
	mov	DWORD PTR ?bitmap_database@@3QBUBitmapData@Bitmap@touchgfx@@B+184, 0
	mov	eax, 170				; 000000aaH
	mov	WORD PTR ?bitmap_database@@3QBUBitmapData@Bitmap@touchgfx@@B+188, ax
	mov	eax, 60					; 0000003cH
	mov	WORD PTR ?bitmap_database@@3QBUBitmapData@Bitmap@touchgfx@@B+190, ax
	mov	eax, 23					; 00000017H
	mov	WORD PTR ?bitmap_database@@3QBUBitmapData@Bitmap@touchgfx@@B+192, ax
	mov	eax, 5
	mov	WORD PTR ?bitmap_database@@3QBUBitmapData@Bitmap@touchgfx@@B+194, ax
	mov	eax, 124				; 0000007cH
	mov	WORD PTR ?bitmap_database@@3QBUBitmapData@Bitmap@touchgfx@@B+196, ax
	mov	eax, 16432				; 00004030H
	mov	WORD PTR ?bitmap_database@@3QBUBitmapData@Bitmap@touchgfx@@B+198, ax
; Line 43
	mov	DWORD PTR ?bitmap_database@@3QBUBitmapData@Bitmap@touchgfx@@B+200, OFFSET ?_blue_buttons_round_small_pressed@@3QBEB ; _blue_buttons_round_small_pressed
	mov	DWORD PTR ?bitmap_database@@3QBUBitmapData@Bitmap@touchgfx@@B+204, 0
	mov	eax, 170				; 000000aaH
	mov	WORD PTR ?bitmap_database@@3QBUBitmapData@Bitmap@touchgfx@@B+208, ax
	mov	eax, 60					; 0000003cH
	mov	WORD PTR ?bitmap_database@@3QBUBitmapData@Bitmap@touchgfx@@B+210, ax
	mov	eax, 23					; 00000017H
	mov	WORD PTR ?bitmap_database@@3QBUBitmapData@Bitmap@touchgfx@@B+212, ax
	mov	eax, 5
	mov	WORD PTR ?bitmap_database@@3QBUBitmapData@Bitmap@touchgfx@@B+214, ax
	mov	eax, 124				; 0000007cH
	mov	WORD PTR ?bitmap_database@@3QBUBitmapData@Bitmap@touchgfx@@B+216, ax
	mov	eax, 16432				; 00004030H
	mov	WORD PTR ?bitmap_database@@3QBUBitmapData@Bitmap@touchgfx@@B+218, ax
; Line 44
	mov	DWORD PTR ?bitmap_database@@3QBUBitmapData@Bitmap@touchgfx@@B+220, OFFSET ?_c01_btn@@3QBEB ; _c01_btn
	mov	DWORD PTR ?bitmap_database@@3QBUBitmapData@Bitmap@touchgfx@@B+224, 0
	mov	eax, 173				; 000000adH
	mov	WORD PTR ?bitmap_database@@3QBUBitmapData@Bitmap@touchgfx@@B+228, ax
	mov	eax, 45					; 0000002dH
	mov	WORD PTR ?bitmap_database@@3QBUBitmapData@Bitmap@touchgfx@@B+230, ax
	mov	eax, 19					; 00000013H
	mov	WORD PTR ?bitmap_database@@3QBUBitmapData@Bitmap@touchgfx@@B+232, ax
	mov	eax, 6
	mov	WORD PTR ?bitmap_database@@3QBUBitmapData@Bitmap@touchgfx@@B+234, ax
	mov	eax, 135				; 00000087H
	mov	WORD PTR ?bitmap_database@@3QBUBitmapData@Bitmap@touchgfx@@B+236, ax
	mov	eax, 16417				; 00004021H
	mov	WORD PTR ?bitmap_database@@3QBUBitmapData@Bitmap@touchgfx@@B+238, ax
; Line 45
	mov	DWORD PTR ?bitmap_database@@3QBUBitmapData@Bitmap@touchgfx@@B+240, OFFSET ?_c01_btn_selected@@3QBEB ; _c01_btn_selected
	mov	DWORD PTR ?bitmap_database@@3QBUBitmapData@Bitmap@touchgfx@@B+244, 0
	mov	eax, 173				; 000000adH
	mov	WORD PTR ?bitmap_database@@3QBUBitmapData@Bitmap@touchgfx@@B+248, ax
	mov	eax, 45					; 0000002dH
	mov	WORD PTR ?bitmap_database@@3QBUBitmapData@Bitmap@touchgfx@@B+250, ax
	mov	eax, 20					; 00000014H
	mov	WORD PTR ?bitmap_database@@3QBUBitmapData@Bitmap@touchgfx@@B+252, ax
	mov	eax, 5
	mov	WORD PTR ?bitmap_database@@3QBUBitmapData@Bitmap@touchgfx@@B+254, ax
	mov	eax, 133				; 00000085H
	mov	WORD PTR ?bitmap_database@@3QBUBitmapData@Bitmap@touchgfx@@B+256, ax
	mov	eax, 16418				; 00004022H
	mov	WORD PTR ?bitmap_database@@3QBUBitmapData@Bitmap@touchgfx@@B+258, ax
; Line 46
	mov	DWORD PTR ?bitmap_database@@3QBUBitmapData@Bitmap@touchgfx@@B+260, OFFSET ?_clocks_backgrounds_clock_classic_background@@3QBEB ; _clocks_backgrounds_clock_classic_background
	mov	DWORD PTR ?bitmap_database@@3QBUBitmapData@Bitmap@touchgfx@@B+264, 0
	mov	eax, 233				; 000000e9H
	mov	WORD PTR ?bitmap_database@@3QBUBitmapData@Bitmap@touchgfx@@B+268, ax
	mov	eax, 243				; 000000f3H
	mov	WORD PTR ?bitmap_database@@3QBUBitmapData@Bitmap@touchgfx@@B+270, ax
	mov	eax, 46					; 0000002eH
	mov	WORD PTR ?bitmap_database@@3QBUBitmapData@Bitmap@touchgfx@@B+272, ax
	mov	eax, 50					; 00000032H
	mov	WORD PTR ?bitmap_database@@3QBUBitmapData@Bitmap@touchgfx@@B+274, ax
	mov	eax, 143				; 0000008fH
	mov	WORD PTR ?bitmap_database@@3QBUBitmapData@Bitmap@touchgfx@@B+276, ax
	mov	eax, 16526				; 0000408eH
	mov	WORD PTR ?bitmap_database@@3QBUBitmapData@Bitmap@touchgfx@@B+278, ax
; Line 47
	mov	DWORD PTR ?bitmap_database@@3QBUBitmapData@Bitmap@touchgfx@@B+280, OFFSET ?_clocks_hands_clock_classic_hour_hand@@3QBEB ; _clocks_hands_clock_classic_hour_hand
	mov	DWORD PTR ?bitmap_database@@3QBUBitmapData@Bitmap@touchgfx@@B+284, 0
	mov	eax, 5
	mov	WORD PTR ?bitmap_database@@3QBUBitmapData@Bitmap@touchgfx@@B+288, ax
	mov	eax, 45					; 0000002dH
	mov	WORD PTR ?bitmap_database@@3QBUBitmapData@Bitmap@touchgfx@@B+290, ax
	mov	eax, 2
	mov	WORD PTR ?bitmap_database@@3QBUBitmapData@Bitmap@touchgfx@@B+292, ax
	mov	eax, 4
	mov	WORD PTR ?bitmap_database@@3QBUBitmapData@Bitmap@touchgfx@@B+294, ax
	mov	eax, 1
	mov	WORD PTR ?bitmap_database@@3QBUBitmapData@Bitmap@touchgfx@@B+296, ax
	mov	eax, 16423				; 00004027H
	mov	WORD PTR ?bitmap_database@@3QBUBitmapData@Bitmap@touchgfx@@B+298, ax
; Line 48
	mov	DWORD PTR ?bitmap_database@@3QBUBitmapData@Bitmap@touchgfx@@B+300, OFFSET ?_clocks_hands_clock_classic_minute_hand@@3QBEB ; _clocks_hands_clock_classic_minute_hand
	mov	DWORD PTR ?bitmap_database@@3QBUBitmapData@Bitmap@touchgfx@@B+304, 0
	mov	eax, 5
	mov	WORD PTR ?bitmap_database@@3QBUBitmapData@Bitmap@touchgfx@@B+308, ax
	mov	eax, 65					; 00000041H
	mov	WORD PTR ?bitmap_database@@3QBUBitmapData@Bitmap@touchgfx@@B+310, ax
	mov	eax, 2
	mov	WORD PTR ?bitmap_database@@3QBUBitmapData@Bitmap@touchgfx@@B+312, ax
	mov	eax, 2
	mov	WORD PTR ?bitmap_database@@3QBUBitmapData@Bitmap@touchgfx@@B+314, ax
	mov	eax, 1
	mov	WORD PTR ?bitmap_database@@3QBUBitmapData@Bitmap@touchgfx@@B+316, ax
	mov	eax, 16445				; 0000403dH
	mov	WORD PTR ?bitmap_database@@3QBUBitmapData@Bitmap@touchgfx@@B+318, ax
; Line 49
	mov	DWORD PTR ?bitmap_database@@3QBUBitmapData@Bitmap@touchgfx@@B+320, OFFSET ?_clocks_hands_clock_classic_second_hand@@3QBEB ; _clocks_hands_clock_classic_second_hand
	mov	DWORD PTR ?bitmap_database@@3QBUBitmapData@Bitmap@touchgfx@@B+324, 0
	mov	eax, 9
	mov	WORD PTR ?bitmap_database@@3QBUBitmapData@Bitmap@touchgfx@@B+328, ax
	mov	eax, 103				; 00000067H
	mov	WORD PTR ?bitmap_database@@3QBUBitmapData@Bitmap@touchgfx@@B+330, ax
	mov	eax, 4
	mov	WORD PTR ?bitmap_database@@3QBUBitmapData@Bitmap@touchgfx@@B+332, ax
	mov	eax, 1
	mov	WORD PTR ?bitmap_database@@3QBUBitmapData@Bitmap@touchgfx@@B+334, ax
	mov	eax, 1
	mov	WORD PTR ?bitmap_database@@3QBUBitmapData@Bitmap@touchgfx@@B+336, ax
	mov	eax, 16478				; 0000405eH
	mov	WORD PTR ?bitmap_database@@3QBUBitmapData@Bitmap@touchgfx@@B+338, ax
; Line 50
	mov	DWORD PTR ?bitmap_database@@3QBUBitmapData@Bitmap@touchgfx@@B+340, OFFSET ?_f01start@@3QBEB ; _f01start
	mov	DWORD PTR ?bitmap_database@@3QBUBitmapData@Bitmap@touchgfx@@B+344, 0
	mov	eax, 480				; 000001e0H
	mov	WORD PTR ?bitmap_database@@3QBUBitmapData@Bitmap@touchgfx@@B+348, ax
	mov	eax, 272				; 00000110H
	mov	WORD PTR ?bitmap_database@@3QBUBitmapData@Bitmap@touchgfx@@B+350, ax
	mov	eax, 270				; 0000010eH
	mov	WORD PTR ?bitmap_database@@3QBUBitmapData@Bitmap@touchgfx@@B+352, ax
	mov	eax, 213				; 000000d5H
	mov	WORD PTR ?bitmap_database@@3QBUBitmapData@Bitmap@touchgfx@@B+354, ax
	mov	eax, 5
	mov	WORD PTR ?bitmap_database@@3QBUBitmapData@Bitmap@touchgfx@@B+356, ax
	mov	eax, 16409				; 00004019H
	mov	WORD PTR ?bitmap_database@@3QBUBitmapData@Bitmap@touchgfx@@B+358, ax
; Line 51
	mov	DWORD PTR ?bitmap_database@@3QBUBitmapData@Bitmap@touchgfx@@B+360, OFFSET ?_f02status@@3QBEB ; _f02status
	mov	DWORD PTR ?bitmap_database@@3QBUBitmapData@Bitmap@touchgfx@@B+364, 0
	mov	eax, 480				; 000001e0H
	mov	WORD PTR ?bitmap_database@@3QBUBitmapData@Bitmap@touchgfx@@B+368, ax
	mov	eax, 272				; 00000110H
	mov	WORD PTR ?bitmap_database@@3QBUBitmapData@Bitmap@touchgfx@@B+370, ax
	xor	eax, eax
	mov	WORD PTR ?bitmap_database@@3QBUBitmapData@Bitmap@touchgfx@@B+372, ax
	xor	eax, eax
	mov	WORD PTR ?bitmap_database@@3QBUBitmapData@Bitmap@touchgfx@@B+374, ax
	mov	eax, 480				; 000001e0H
	mov	WORD PTR ?bitmap_database@@3QBUBitmapData@Bitmap@touchgfx@@B+376, ax
	mov	eax, 8464				; 00002110H
	mov	WORD PTR ?bitmap_database@@3QBUBitmapData@Bitmap@touchgfx@@B+378, ax
; Line 52
	mov	DWORD PTR ?bitmap_database@@3QBUBitmapData@Bitmap@touchgfx@@B+380, OFFSET ?_f03control@@3QBEB ; _f03control
	mov	DWORD PTR ?bitmap_database@@3QBUBitmapData@Bitmap@touchgfx@@B+384, 0
	mov	eax, 480				; 000001e0H
	mov	WORD PTR ?bitmap_database@@3QBUBitmapData@Bitmap@touchgfx@@B+388, ax
	mov	eax, 272				; 00000110H
	mov	WORD PTR ?bitmap_database@@3QBUBitmapData@Bitmap@touchgfx@@B+390, ax
	xor	eax, eax
	mov	WORD PTR ?bitmap_database@@3QBUBitmapData@Bitmap@touchgfx@@B+392, ax
	xor	eax, eax
	mov	WORD PTR ?bitmap_database@@3QBUBitmapData@Bitmap@touchgfx@@B+394, ax
	mov	eax, 480				; 000001e0H
	mov	WORD PTR ?bitmap_database@@3QBUBitmapData@Bitmap@touchgfx@@B+396, ax
	mov	eax, 8464				; 00002110H
	mov	WORD PTR ?bitmap_database@@3QBUBitmapData@Bitmap@touchgfx@@B+398, ax
; Line 53
	mov	DWORD PTR ?bitmap_database@@3QBUBitmapData@Bitmap@touchgfx@@B+400, OFFSET ?_selectmenu_none@@3QBEB ; _selectmenu_none
	mov	DWORD PTR ?bitmap_database@@3QBUBitmapData@Bitmap@touchgfx@@B+404, 0
	mov	eax, 40					; 00000028H
	mov	WORD PTR ?bitmap_database@@3QBUBitmapData@Bitmap@touchgfx@@B+408, ax
	mov	eax, 127				; 0000007fH
	mov	WORD PTR ?bitmap_database@@3QBUBitmapData@Bitmap@touchgfx@@B+410, ax
	xor	eax, eax
	mov	WORD PTR ?bitmap_database@@3QBUBitmapData@Bitmap@touchgfx@@B+412, ax
	xor	eax, eax
	mov	WORD PTR ?bitmap_database@@3QBUBitmapData@Bitmap@touchgfx@@B+414, ax
	xor	eax, eax
	mov	WORD PTR ?bitmap_database@@3QBUBitmapData@Bitmap@touchgfx@@B+416, ax
	mov	eax, 16384				; 00004000H
	mov	WORD PTR ?bitmap_database@@3QBUBitmapData@Bitmap@touchgfx@@B+418, ax
	pop	edi
	pop	esi
	pop	ebx
	add	esp, 192				; 000000c0H
	cmp	ebp, esp
	call	__RTC_CheckEsp
	mov	esp, ebp
	pop	ebp
	ret	0
??__Ebitmap_database@@YAXXZ ENDP			; `dynamic initializer for 'bitmap_database''
text$di	ENDS
; Function compile flags: /Odtp /RTCsu /ZI
;	COMDAT ?getInstanceSize@BitmapDatabase@@YAGXZ
_TEXT	SEGMENT
?getInstanceSize@BitmapDatabase@@YAGXZ PROC		; BitmapDatabase::getInstanceSize, COMDAT
; File C:\TouchGFXProjects\RPCTest\TouchGFX\generated\images\src\BitmapDatabase.cpp
; Line 64
	push	ebp
	mov	ebp, esp
	sub	esp, 192				; 000000c0H
	push	ebx
	push	esi
	push	edi
	lea	edi, DWORD PTR [ebp-192]
	mov	ecx, 48					; 00000030H
	mov	eax, -858993460				; ccccccccH
	rep stosd
	mov	ecx, OFFSET __EFBBDE62_BitmapDatabase@cpp
	call	@__CheckForDebuggerJustMyCode@4
; Line 65
	mov	eax, 21					; 00000015H
; Line 66
	pop	edi
	pop	esi
	pop	ebx
	add	esp, 192				; 000000c0H
	cmp	ebp, esp
	call	__RTC_CheckEsp
	mov	esp, ebp
	pop	ebp
	ret	0
?getInstanceSize@BitmapDatabase@@YAGXZ ENDP		; BitmapDatabase::getInstanceSize
_TEXT	ENDS
; Function compile flags: /Odtp /RTCsu /ZI
;	COMDAT ?getInstance@BitmapDatabase@@YAPBUBitmapData@Bitmap@touchgfx@@XZ
_TEXT	SEGMENT
?getInstance@BitmapDatabase@@YAPBUBitmapData@Bitmap@touchgfx@@XZ PROC ; BitmapDatabase::getInstance, COMDAT
; File C:\TouchGFXProjects\RPCTest\TouchGFX\generated\images\src\BitmapDatabase.cpp
; Line 59
	push	ebp
	mov	ebp, esp
	sub	esp, 192				; 000000c0H
	push	ebx
	push	esi
	push	edi
	lea	edi, DWORD PTR [ebp-192]
	mov	ecx, 48					; 00000030H
	mov	eax, -858993460				; ccccccccH
	rep stosd
	mov	ecx, OFFSET __EFBBDE62_BitmapDatabase@cpp
	call	@__CheckForDebuggerJustMyCode@4
; Line 60
	mov	eax, OFFSET ?bitmap_database@@3QBUBitmapData@Bitmap@touchgfx@@B
; Line 61
	pop	edi
	pop	esi
	pop	ebx
	add	esp, 192				; 000000c0H
	cmp	ebp, esp
	call	__RTC_CheckEsp
	mov	esp, ebp
	pop	ebp
	ret	0
?getInstance@BitmapDatabase@@YAPBUBitmapData@Bitmap@touchgfx@@XZ ENDP ; BitmapDatabase::getInstance
_TEXT	ENDS
END
