; Listing generated by Microsoft (R) Optimizing Compiler Version 19.22.27905.0 

	TITLE	C:\TouchGFXProjects\RPCTest\TouchGFX\generated\fonts\src\Font_YTTE08_TTF_14_4bpp_23.cpp
	.686P
	.XMM
	include listing.inc
	.model	flat

INCLUDELIB MSVCRTD
INCLUDELIB OLDNAMES

PUBLIC	?unicodes_YTTE08_TTF_14_4bpp_23@@3QBEB		; unicodes_YTTE08_TTF_14_4bpp_23
msvcjmc	SEGMENT
__E6CB534E_Types@hpp DB 01H
msvcjmc	ENDS
CONST	SEGMENT
?unicodes_YTTE08_TTF_14_4bpp_23@@3QBEB DB 00H		; unicodes_YTTE08_TTF_14_4bpp_23
	DB	00H
	DB	00H
	DB	00H
	DB	013H
	DB	022H
	DB	074H
	DB	077H
	DB	077H
	DB	014H
	DB	08fH
	DB	0cdH
	DB	0f9H
	DB	0ffH
	DB	0ffH
	DB	019H
	DB	08fH
	DB	0cdH
	DB	011H
	DB	011H
	DB	0f2H
	DB	019H
	DB	08fH
	DB	0cdH
	DB	00H
	DB	00H
	DB	0f1H
	DB	019H
	DB	08fH
	DB	0cdH
	DB	053H
	DB	055H
	DB	0f5H
	DB	019H
	DB	08fH
	DB	0cdH
	DB	0f9H
	DB	0ffH
	DB	0ffH
	DB	0ffH
	DB	08fH
	DB	0cdH
	DB	0f9H
	DB	034H
	DB	033H
	DB	096H
	DB	08fH
	DB	0cdH
	DB	0f9H
	DB	01H
	DB	00H
	DB	010H
	DB	08fH
	DB	0cdH
	DB	0f9H
	DB	01H
	DB	00H
	DB	010H
	DB	08fH
	DB	0cdH
	DB	0f9H
	DB	0ccH
	DB	0ccH
	DB	017H
	DB	08fH
	DB	0cdH
	DB	0b6H
	DB	0bbH
	DB	0bbH
	DB	016H
	DB	08fH
	DB	0cdH
	DB	00H
	DB	00H
	DB	00H
	DB	010H
	DB	07dH
	DB	0bbH
	DB	010H
	DB	011H
	DB	011H
	DB	011H
	DB	011H
	DB	011H
	DB	090H
	DB	0ffH
	DB	0ffH
	DB	0ffH
	DB	0ffH
	DB	0ffH
	DB	0cH
	DB	074H
	DB	077H
	DB	077H
	DB	077H
	DB	077H
	DB	0ceH
	DB	040H
	DB	077H
	DB	077H
	DB	077H
	DB	077H
	DB	0e7H
	DB	0cH
	DB	0f9H
	DB	0ffH
	DB	0ffH
	DB	0ffH
	DB	0ffH
	DB	0cfH
	DB	090H
	DB	01fH
	DB	00H
	DB	00H
	DB	00H
	DB	00H
	DB	00H
	DB	0f9H
	DB	0eeH
	DB	0eeH
	DB	0eeH
	DB	0eeH
	DB	0beH
	DB	050H
	DB	099H
	DB	099H
	DB	099H
	DB	099H
	DB	099H
	DB	07H
	DB	011H
	DB	011H
	DB	011H
	DB	011H
	DB	011H
	DB	011H
	DB	0e0H
	DB	0ffH
	DB	0ffH
	DB	0ffH
	DB	0ffH
	DB	0ffH
	DB	02fH
	DB	076H
	DB	0fcH
	DB	078H
	DB	077H
	DB	0edH
	DB	077H
	DB	01H
	DB	090H
	DB	01fH
	DB	00H
	DB	0b0H
	DB	0eH
	DB	00H
	DB	00H
	DB	0c7H
	DB	01H
	DB	00H
	DB	0b9H
	DB	00H
	DB	00H
	DB	00H
	DB	00H
	DB	00H
	DB	00H
	DB	00H
	DB	023H
	DB	074H
	DB	077H
	DB	077H
	DB	077H
	DB	00H
	DB	0beH
	DB	0f9H
	DB	0ffH
	DB	0ffH
	DB	0ffH
	DB	00H
	DB	0beH
	DB	011H
	DB	011H
	DB	011H
	DB	0faH
	DB	00H
	DB	0beH
	DB	00H
	DB	00H
	DB	00H
	DB	0faH
	DB	00H
	DB	0beH
	DB	064H
	DB	066H
	DB	066H
	DB	0fcH
	DB	00H
	DB	0beH
	DB	0f9H
	DB	0ffH
	DB	0ffH
	DB	0ffH
	DB	00H
	DB	0beH
	DB	0f9H
	DB	012H
	DB	011H
	DB	011H
	DB	00H
	DB	0beH
	DB	0f9H
	DB	01H
	DB	00H
	DB	00H
	DB	00H
	DB	0beH
	DB	0f9H
	DB	01H
	DB	00H
	DB	00H
	DB	00H
	DB	0beH
	DB	0f9H
	DB	0ccH
	DB	0ccH
	DB	0ccH
	DB	00H
	DB	0beH
	DB	0b6H
	DB	0bbH
	DB	0bbH
	DB	0bbH
	DB	00H
	DB	0beH
	DB	00H
	DB	00H
	DB	00H
	DB	00H
	DB	00H
	DB	0acH
	DB	010H
	DB	011H
	DB	011H
	DB	011H
	DB	00H
	DB	045H
	DB	0f9H
	DB	0ffH
	DB	0ffH
	DB	0ffH
	DB	08H
	DB	0beH
	DB	074H
	DB	077H
	DB	077H
	DB	0f8H
	DB	08H
	DB	0beH
	DB	0b7H
	DB	0bbH
	DB	0bbH
	DB	0fbH
	DB	08H
	DB	0beH
	DB	0f9H
	DB	0bbH
	DB	0bbH
	DB	0bbH
	DB	06H
	DB	0beH
	DB	0f9H
	DB	078H
	DB	077H
	DB	077H
	DB	04H
	DB	0beH
	DB	0f9H
	DB	0ffH
	DB	0ffH
	DB	0ffH
	DB	08H
	DB	0beH
	DB	042H
	DB	011H
	DB	011H
	DB	011H
	DB	00H
	DB	0beH
	DB	0f9H
	DB	045H
	DB	044H
	DB	044H
	DB	044H
	DB	0beH
	DB	0f9H
	DB	0ffH
	DB	0ffH
	DB	0ffH
	DB	0ffH
	DB	0bfH
	DB	0f9H
	DB	034H
	DB	033H
	DB	033H
	DB	033H
	DB	0beH
	DB	0f9H
	DB	0ffH
	DB	0ffH
	DB	0ffH
	DB	0ffH
	DB	0bfH
	DB	074H
	DB	077H
	DB	077H
	DB	077H
	DB	077H
	DB	057H
	DB	011H
	DB	00H
	DB	00H
	DB	011H
	DB	00H
	DB	056H
	DB	00H
	DB	0f9H
	DB	01H
	DB	00H
	DB	0f9H
	DB	01H
	DB	0beH
	DB	00H
	DB	0f9H
	DB	089H
	DB	088H
	DB	0fdH
	DB	01H
	DB	0beH
	DB	00H
	DB	0f9H
	DB	0ddH
	DB	0ddH
	DB	0feH
	DB	01H
	DB	0deH
	DB	017H
	DB	0f9H
	DB	01H
	DB	00H
	DB	0f9H
	DB	01H
	DB	0feH
	DB	02fH
	DB	0f9H
	DB	0abH
	DB	0aaH
	DB	0fdH
	DB	01H
	DB	0ceH
	DB	01H
	DB	0d8H
	DB	0ddH
	DB	0ddH
	DB	0ddH
	DB	01H
	DB	0beH
	DB	00H
	DB	053H
	DB	055H
	DB	055H
	DB	055H
	DB	055H
	DB	0beH
	DB	00H
	DB	0f9H
	DB	0ffH
	DB	0ffH
	DB	0ffH
	DB	0ffH
	DB	0bfH
	DB	00H
	DB	085H
	DB	088H
	DB	088H
	DB	088H
	DB	088H
	DB	0beH
	DB	00H
	DB	0f9H
	DB	099H
	DB	099H
	DB	099H
	DB	099H
	DB	079H
	DB	00H
	DB	0f9H
	DB	0eeH
	DB	0eeH
	DB	0eeH
	DB	0eeH
	DB	0beH
	DB	00H
	DB	074H
	DB	077H
	DB	077H
	DB	077H
	DB	077H
	DB	057H
	DB	00H
	DB	00H
	DB	00H
	DB	00H
	DB	010H
	DB	013H
	DB	023H
	DB	0a6H
	DB	01H
	DB	080H
	DB	049H
	DB	04fH
	DB	0beH
	DB	0f9H
	DB	01H
	DB	0b0H
	DB	04eH
	DB	04fH
	DB	0beH
	DB	0f9H
	DB	01H
	DB	0b0H
	DB	04eH
	DB	04fH
	DB	0beH
	DB	0f9H
	DB	067H
	DB	0d6H
	DB	04eH
	DB	04fH
	DB	0beH
	DB	0f9H
	DB	0ffH
	DB	0ffH
	DB	04eH
	DB	08fH
	DB	0beH
	DB	0f9H
	DB	023H
	DB	0c2H
	DB	04eH
	DB	0ffH
	DB	0bfH
	DB	0f9H
	DB	01H
	DB	0b0H
	DB	04eH
	DB	06fH
	DB	0beH
	DB	0f9H
	DB	01H
	DB	0b0H
	DB	04eH
	DB	04fH
	DB	0beH
	DB	0f9H
	DB	01H
	DB	0b0H
	DB	04eH
	DB	04fH
	DB	0beH
	DB	0f9H
	DB	0ddH
	DB	0fdH
	DB	04eH
	DB	04fH
	DB	0beH
	DB	0a6H
	DB	0aaH
	DB	0aaH
	DB	04aH
	DB	04fH
	DB	0beH
	DB	00H
	DB	00H
	DB	00H
	DB	040H
	DB	04dH
	DB	0acH
	DB	011H
	DB	00H
	DB	00H
	DB	011H
	DB	00H
	DB	056H
	DB	0f9H
	DB	01H
	DB	00H
	DB	0ebH
	DB	010H
	DB	0beH
	DB	0f9H
	DB	089H
	DB	088H
	DB	0edH
	DB	0f6H
	DB	0bfH
	DB	0f9H
	DB	0eeH
	DB	0eeH
	DB	0efH
	DB	083H
	DB	0beH
	DB	0f9H
	DB	01H
	DB	00H
	DB	0ebH
	DB	00H
	DB	0beH
	DB	0f9H
	DB	0aaH
	DB	0aaH
	DB	0eeH
	DB	0f6H
	DB	0bfH
	DB	0d8H
	DB	0ddH
	DB	0ddH
	DB	0ddH
	DB	083H
	DB	0beH
	DB	053H
	DB	055H
	DB	055H
	DB	055H
	DB	055H
	DB	0beH
	DB	0f9H
	DB	0ffH
	DB	0ffH
	DB	0ffH
	DB	0ffH
	DB	0bfH
	DB	085H
	DB	088H
	DB	088H
	DB	088H
	DB	088H
	DB	0beH
	DB	0f9H
	DB	099H
	DB	099H
	DB	099H
	DB	099H
	DB	069H
	DB	0f9H
	DB	0deH
	DB	0ddH
	DB	0ddH
	DB	0ddH
	DB	0adH
	DB	074H
	DB	077H
	DB	077H
	DB	077H
	DB	077H
	DB	057H
	DB	0b7H
	DB	01H
	DB	00H
	DB	00H
	DB	00H
	DB	09aH
	DB	090H
	DB	01fH
	DB	00H
	DB	00H
	DB	00H
	DB	0d0H
	DB	0cH
	DB	0f9H
	DB	0eeH
	DB	0eeH
	DB	0eeH
	DB	0eeH
	DB	0cfH
	DB	090H
	DB	09fH
	DB	088H
	DB	088H
	DB	088H
	DB	0e8H
	DB	0cH
	DB	0f9H
	DB	01H
	DB	00H
	DB	00H
	DB	00H
	DB	0cdH
	DB	090H
	DB	09fH
	DB	088H
	DB	088H
	DB	088H
	DB	0e8H
	DB	0cH
	DB	0e8H
	DB	0eeH
	DB	0eeH
	DB	0eeH
	DB	0eeH
	DB	0beH
	DB	00H
	DB	00H
	DB	00H
	DB	0daH
	DB	00H
	DB	00H
	DB	00H
	DB	00H
	DB	00H
	DB	0b0H
	DB	0eH
	DB	00H
	DB	00H
	DB	060H
	DB	077H
	DB	077H
	DB	0fdH
	DB	077H
	DB	077H
	DB	017H
	DB	0feH
	DB	0ffH
	DB	0ffH
	DB	0ffH
	DB	0ffH
	DB	0ffH
	DB	012H
	DB	011H
	DB	011H
	DB	011H
	DB	011H
	DB	011H
	DB	01H
	DB	064H
	DB	00H
	DB	00H
	DB	00H
	DB	00H
	DB	055H
	DB	090H
	DB	07fH
	DB	066H
	DB	066H
	DB	066H
	DB	0e6H
	DB	0cH
	DB	0f9H
	DB	0eeH
	DB	0eeH
	DB	0eeH
	DB	0eeH
	DB	0cfH
	DB	090H
	DB	01fH
	DB	00H
	DB	00H
	DB	00H
	DB	0d0H
	DB	0cH
	DB	0f9H
	DB	0deH
	DB	0ddH
	DB	0ddH
	DB	0ddH
	DB	0cfH
	DB	040H
	DB	066H
	DB	066H
	DB	066H
	DB	066H
	DB	066H
	DB	05H
	DB	0edH
	DB	0eeH
	DB	0eeH
	DB	0eeH
	DB	0eeH
	DB	0eeH
	DB	072H
	DB	077H
	DB	077H
	DB	0fcH
	DB	078H
	DB	077H
	DB	017H
	DB	0e8H
	DB	01H
	DB	090H
	DB	01fH
	DB	00H
	DB	00H
	DB	090H
	DB	01fH
	DB	00H
	DB	096H
	DB	01H
	DB	00H
	DB	00H
	DB	0f9H
	DB	01H
	DB	00H
	DB	00H
	DB	00H
	DB	00H
	DB	090H
	DB	0efH
	DB	0eeH
	DB	0eeH
	DB	0eeH
	DB	0eeH
	DB	0bH
	DB	074H
	DB	077H
	DB	077H
	DB	077H
	DB	077H
	DB	067H
	DB	00H
	DB	011H
	DB	00H
	DB	00H
	DB	011H
	DB	00H
	DB	045H
	DB	0f9H
	DB	01H
	DB	00H
	DB	0f9H
	DB	00H
	DB	0beH
	DB	0f9H
	DB	077H
	DB	077H
	DB	0fcH
	DB	00H
	DB	0beH
	DB	0f9H
	DB	0eeH
	DB	0eeH
	DB	0ffH
	DB	00H
	DB	0beH
	DB	0f9H
	DB	01H
	DB	00H
	DB	0f9H
	DB	00H
	DB	0beH
	DB	0f9H
	DB	067H
	DB	066H
	DB	0fcH
	DB	00H
	DB	0beH
	DB	0f9H
	DB	0ffH
	DB	0ffH
	DB	0ffH
	DB	00H
	DB	0beH
	DB	032H
	DB	033H
	DB	033H
	DB	033H
	DB	011H
	DB	0beH
	DB	0f9H
	DB	0ffH
	DB	0ffH
	DB	0ffH
	DB	0ffH
	DB	0bfH
	DB	0f9H
	DB	078H
	DB	077H
	DB	077H
	DB	077H
	DB	0beH
	DB	0f9H
	DB	012H
	DB	011H
	DB	011H
	DB	011H
	DB	0beH
	DB	0f9H
	DB	0ffH
	DB	0ffH
	DB	0ffH
	DB	0ffH
	DB	0bfH
	DB	074H
	DB	077H
	DB	077H
	DB	077H
	DB	077H
	DB	057H
CONST	ENDS
PUBLIC	__JustMyCode_Default
; Function compile flags: /Odt
;	COMDAT __JustMyCode_Default
_TEXT	SEGMENT
__JustMyCode_Default PROC				; COMDAT
	push	ebp
	mov	ebp, esp
	pop	ebp
	ret	0
__JustMyCode_Default ENDP
_TEXT	ENDS
END
